

Microchip MPLAB XC8 Assembler V2.41 build 20230208172133 
                                                                                               Mon May 22 20:30:20 2023

Microchip MPLAB XC8 C Compiler v2.41 (Free license) build 20230208172133 Og1 
     1                           	processor	16F887
     2                           	pagewidth 120
     3                           	opt	flic
     4                           	psect	idataBANK1,global,class=CODE,delta=2,noexec
     5                           	psect	idataBANK3,global,class=CODE,delta=2,noexec
     6                           	psect	nvBANK1,global,class=BANK1,space=1,delta=1,noexec
     7                           	psect	strings,global,class=STRING,delta=2,noexec
     8                           	psect	cinit,global,class=CODE,merge=1,delta=2
     9                           	psect	bssBANK0,global,class=BANK0,space=1,delta=1,noexec
    10                           	psect	bssBANK1,global,class=BANK1,space=1,delta=1,noexec
    11                           	psect	dataBANK1,global,class=BANK1,space=1,delta=1,noexec
    12                           	psect	dataBANK3,global,class=BANK3,space=1,delta=1,noexec
    13                           	psect	inittext,global,class=CODE,delta=2
    14                           	psect	clrtext,global,class=CODE,delta=2
    15                           	psect	cstackBANK1,global,class=BANK1,space=1,delta=1,noexec
    16                           	psect	cstackCOMMON,global,class=COMMON,space=1,delta=1,noexec
    17                           	psect	cstackBANK0,global,class=BANK0,space=1,delta=1,noexec
    18                           	psect	maintext,global,class=CODE,split=1,delta=2
    19                           	psect	text1,local,class=CODE,merge=1,delta=2
    20                           	psect	text2,local,class=CODE,merge=1,delta=2
    21                           	psect	text3,local,class=CODE,merge=1,delta=2
    22                           	psect	text4,local,class=CODE,merge=1,delta=2
    23                           	psect	text5,local,class=CODE,merge=1,delta=2
    24                           	psect	text6,local,class=CODE,merge=1,delta=2
    25                           	psect	text7,local,class=CODE,merge=1,delta=2
    26                           	psect	text8,local,class=CODE,merge=1,delta=2,group=1
    27                           	psect	text9,local,class=CODE,merge=1,delta=2
    28                           	psect	text10,local,class=CODE,merge=1,delta=2
    29                           	psect	text11,local,class=CODE,merge=1,delta=2
    30                           	psect	text12,local,class=CODE,merge=1,delta=2
    31                           	psect	text13,local,class=CODE,merge=1,delta=2
    32                           	psect	text14,local,class=CODE,merge=1,delta=2
    33                           	psect	text15,local,class=CODE,merge=1,delta=2
    34                           	psect	text16,local,class=CODE,merge=1,delta=2
    35                           	psect	text17,local,class=CODE,merge=1,delta=2
    36                           	psect	text18,local,class=CODE,merge=1,delta=2
    37                           	psect	text19,local,class=CODE,merge=1,delta=2
    38                           	psect	text20,local,class=CODE,merge=1,delta=2
    39                           	psect	text21,local,class=CODE,merge=1,delta=2
    40                           	psect	text22,local,class=CODE,merge=1,delta=2
    41                           	psect	text23,local,class=CODE,merge=1,delta=2
    42                           	psect	text24,local,class=CODE,merge=1,delta=2
    43                           	psect	text25,local,class=CODE,merge=1,delta=2,group=1
    44                           	psect	text26,local,class=CODE,merge=1,delta=2
    45                           	psect	text27,local,class=CODE,merge=1,delta=2
    46                           	psect	text28,local,class=CODE,merge=1,delta=2
    47                           	psect	text29,local,class=CODE,merge=1,delta=2,group=1
    48                           	psect	text30,local,class=CODE,merge=1,delta=2,group=1
    49                           	psect	text31,local,class=CODE,merge=1,delta=2,group=1
    50                           	psect	text32,local,class=CODE,merge=1,delta=2,group=1
    51                           	psect	text33,local,class=CODE,merge=1,delta=2,group=1
    52                           	psect	text34,local,class=CODE,merge=1,delta=2,group=1
    53                           	psect	text35,local,class=CODE,merge=1,delta=2,group=1
    54                           	psect	text36,local,class=CODE,merge=1,delta=2,group=1
    55                           	psect	text37,local,class=CODE,merge=1,delta=2,group=1
    56                           	psect	text38,local,class=CODE,merge=1,delta=2
    57                           	psect	text39,local,class=CODE,merge=1,delta=2
    58                           	psect	text40,local,class=CODE,merge=1,delta=2
    59                           	psect	text41,local,class=CODE,merge=1,delta=2
    60                           	psect	idloc,global,abs,ovrld,class=IDLOC,space=5,delta=2,noexec
    61                           	psect	config,global,abs,ovrld,class=CONFIG,space=4,delta=2,noexec
    62                           	dabs	1,0x7E,2
    63     0000                     
    64                           ; Version 2.40
    65                           ; Generated 17/11/2021 GMT
    66                           ; 
    67                           ; Copyright © 2021, Microchip Technology Inc. and its subsidiaries ("Microchip")
    68                           ; All rights reserved.
    69                           ; 
    70                           ; This software is developed by Microchip Technology Inc. and its subsidiaries ("Microch
      +                          ip").
    71                           ; 
    72                           ; Redistribution and use in source and binary forms, with or without modification, are
    73                           ; permitted provided that the following conditions are met:
    74                           ; 
    75                           ;     1. Redistributions of source code must retain the above copyright notice, this lis
      +                          t of
    76                           ;        conditions and the following disclaimer.
    77                           ; 
    78                           ;     2. Redistributions in binary form must reproduce the above copyright notice, this 
      +                          list
    79                           ;        of conditions and the following disclaimer in the documentation and/or other
    80                           ;        materials provided with the distribution. Publication is not required when
    81                           ;        this file is used in an embedded application.
    82                           ; 
    83                           ;     3. Microchip's name may not be used to endorse or promote products derived from th
      +                          is
    84                           ;        software without specific prior written permission.
    85                           ; 
    86                           ; THIS SOFTWARE IS PROVIDED BY MICROCHIP "AS IS" AND ANY EXPRESS OR IMPLIED WARRANTIES,
    87                           ; INCLUDING, BUT NOT LIMITED TO, THE IMPLIED WARRANTIES OF MERCHANTABILITY AND FITNESS F
      +                          OR
    88                           ; PURPOSE ARE DISCLAIMED.  IN NO EVENT SHALL MICROCHIP BE LIABLE FOR ANY DIRECT, INDIREC
      +                          T,
    89                           ; INCIDENTAL, SPECIAL, EXEMPLARY, OR CONSEQUENTIAL DAMAGES (INCLUDING BUT NOT LIMITED TO
    90                           ; PROCUREMENT OF SUBSTITUTE GOODS OR SERVICES; LOSS OF USE, DATA OR PROFITS; OR BUSINESS
    91                           ; INTERRUPTION) HOWSOEVER CAUSED AND ON ANY THEORY OF LIABILITY, WHETHER IN CONTRACT, ST
      +                          RICT
    92                           ; LIABILITY, OR TORT (INCLUDING NEGLIGENCE OR OTHERWISE) ARISING IN ANY WAY OUT OF THE U
      +                          SE OF
    93                           ; THIS SOFTWARE, EVEN IF ADVISED OF THE POSSIBILITY OF SUCH DAMAGE.
    94                           ; 
    95                           ; 
    96                           ; Code-generator required, PIC16F887 Definitions
    97                           ; 
    98                           ; SFR Addresses
    99     0000                     	;# 
   100     0001                     	;# 
   101     0002                     	;# 
   102     0003                     	;# 
   103     0004                     	;# 
   104     0005                     	;# 
   105     0006                     	;# 
   106     0007                     	;# 
   107     0008                     	;# 
   108     0009                     	;# 
   109     000A                     	;# 
   110     000B                     	;# 
   111     000C                     	;# 
   112     000D                     	;# 
   113     000E                     	;# 
   114     000E                     	;# 
   115     000F                     	;# 
   116     0010                     	;# 
   117     0011                     	;# 
   118     0012                     	;# 
   119     0013                     	;# 
   120     0014                     	;# 
   121     0015                     	;# 
   122     0015                     	;# 
   123     0016                     	;# 
   124     0017                     	;# 
   125     0018                     	;# 
   126     0019                     	;# 
   127     001A                     	;# 
   128     001B                     	;# 
   129     001B                     	;# 
   130     001C                     	;# 
   131     001D                     	;# 
   132     001E                     	;# 
   133     001F                     	;# 
   134     0081                     	;# 
   135     0085                     	;# 
   136     0086                     	;# 
   137     0087                     	;# 
   138     0088                     	;# 
   139     0089                     	;# 
   140     008C                     	;# 
   141     008D                     	;# 
   142     008E                     	;# 
   143     008F                     	;# 
   144     0090                     	;# 
   145     0091                     	;# 
   146     0092                     	;# 
   147     0093                     	;# 
   148     0093                     	;# 
   149     0093                     	;# 
   150     0094                     	;# 
   151     0095                     	;# 
   152     0096                     	;# 
   153     0097                     	;# 
   154     0098                     	;# 
   155     0099                     	;# 
   156     009A                     	;# 
   157     009B                     	;# 
   158     009C                     	;# 
   159     009D                     	;# 
   160     009E                     	;# 
   161     009F                     	;# 
   162     0105                     	;# 
   163     0107                     	;# 
   164     0108                     	;# 
   165     0109                     	;# 
   166     010C                     	;# 
   167     010C                     	;# 
   168     010D                     	;# 
   169     010E                     	;# 
   170     010F                     	;# 
   171     0185                     	;# 
   172     0187                     	;# 
   173     0188                     	;# 
   174     0189                     	;# 
   175     018C                     	;# 
   176     018D                     	;# 
   177     0000                     	;# 
   178     0001                     	;# 
   179     0002                     	;# 
   180     0003                     	;# 
   181     0004                     	;# 
   182     0005                     	;# 
   183     0006                     	;# 
   184     0007                     	;# 
   185     0008                     	;# 
   186     0009                     	;# 
   187     000A                     	;# 
   188     000B                     	;# 
   189     000C                     	;# 
   190     000D                     	;# 
   191     000E                     	;# 
   192     000E                     	;# 
   193     000F                     	;# 
   194     0010                     	;# 
   195     0011                     	;# 
   196     0012                     	;# 
   197     0013                     	;# 
   198     0014                     	;# 
   199     0015                     	;# 
   200     0015                     	;# 
   201     0016                     	;# 
   202     0017                     	;# 
   203     0018                     	;# 
   204     0019                     	;# 
   205     001A                     	;# 
   206     001B                     	;# 
   207     001B                     	;# 
   208     001C                     	;# 
   209     001D                     	;# 
   210     001E                     	;# 
   211     001F                     	;# 
   212     0081                     	;# 
   213     0085                     	;# 
   214     0086                     	;# 
   215     0087                     	;# 
   216     0088                     	;# 
   217     0089                     	;# 
   218     008C                     	;# 
   219     008D                     	;# 
   220     008E                     	;# 
   221     008F                     	;# 
   222     0090                     	;# 
   223     0091                     	;# 
   224     0092                     	;# 
   225     0093                     	;# 
   226     0093                     	;# 
   227     0093                     	;# 
   228     0094                     	;# 
   229     0095                     	;# 
   230     0096                     	;# 
   231     0097                     	;# 
   232     0098                     	;# 
   233     0099                     	;# 
   234     009A                     	;# 
   235     009B                     	;# 
   236     009C                     	;# 
   237     009D                     	;# 
   238     009E                     	;# 
   239     009F                     	;# 
   240     0105                     	;# 
   241     0107                     	;# 
   242     0108                     	;# 
   243     0109                     	;# 
   244     010C                     	;# 
   245     010C                     	;# 
   246     010D                     	;# 
   247     010E                     	;# 
   248     010F                     	;# 
   249     0185                     	;# 
   250     0187                     	;# 
   251     0188                     	;# 
   252     0189                     	;# 
   253     018C                     	;# 
   254     018D                     	;# 
   255     0000                     	;# 
   256     0001                     	;# 
   257     0002                     	;# 
   258     0003                     	;# 
   259     0004                     	;# 
   260     0005                     	;# 
   261     0006                     	;# 
   262     0007                     	;# 
   263     0008                     	;# 
   264     0009                     	;# 
   265     000A                     	;# 
   266     000B                     	;# 
   267     000C                     	;# 
   268     000D                     	;# 
   269     000E                     	;# 
   270     000E                     	;# 
   271     000F                     	;# 
   272     0010                     	;# 
   273     0011                     	;# 
   274     0012                     	;# 
   275     0013                     	;# 
   276     0014                     	;# 
   277     0015                     	;# 
   278     0015                     	;# 
   279     0016                     	;# 
   280     0017                     	;# 
   281     0018                     	;# 
   282     0019                     	;# 
   283     001A                     	;# 
   284     001B                     	;# 
   285     001B                     	;# 
   286     001C                     	;# 
   287     001D                     	;# 
   288     001E                     	;# 
   289     001F                     	;# 
   290     0081                     	;# 
   291     0085                     	;# 
   292     0086                     	;# 
   293     0087                     	;# 
   294     0088                     	;# 
   295     0089                     	;# 
   296     008C                     	;# 
   297     008D                     	;# 
   298     008E                     	;# 
   299     008F                     	;# 
   300     0090                     	;# 
   301     0091                     	;# 
   302     0092                     	;# 
   303     0093                     	;# 
   304     0093                     	;# 
   305     0093                     	;# 
   306     0094                     	;# 
   307     0095                     	;# 
   308     0096                     	;# 
   309     0097                     	;# 
   310     0098                     	;# 
   311     0099                     	;# 
   312     009A                     	;# 
   313     009B                     	;# 
   314     009C                     	;# 
   315     009D                     	;# 
   316     009E                     	;# 
   317     009F                     	;# 
   318     0105                     	;# 
   319     0107                     	;# 
   320     0108                     	;# 
   321     0109                     	;# 
   322     010C                     	;# 
   323     010C                     	;# 
   324     010D                     	;# 
   325     010E                     	;# 
   326     010F                     	;# 
   327     0185                     	;# 
   328     0187                     	;# 
   329     0188                     	;# 
   330     0189                     	;# 
   331     018C                     	;# 
   332     018D                     	;# 
   333     0000                     	;# 
   334     0001                     	;# 
   335     0002                     	;# 
   336     0003                     	;# 
   337     0004                     	;# 
   338     0005                     	;# 
   339     0006                     	;# 
   340     0007                     	;# 
   341     0008                     	;# 
   342     0009                     	;# 
   343     000A                     	;# 
   344     000B                     	;# 
   345     000C                     	;# 
   346     000D                     	;# 
   347     000E                     	;# 
   348     000E                     	;# 
   349     000F                     	;# 
   350     0010                     	;# 
   351     0011                     	;# 
   352     0012                     	;# 
   353     0013                     	;# 
   354     0014                     	;# 
   355     0015                     	;# 
   356     0015                     	;# 
   357     0016                     	;# 
   358     0017                     	;# 
   359     0018                     	;# 
   360     0019                     	;# 
   361     001A                     	;# 
   362     001B                     	;# 
   363     001B                     	;# 
   364     001C                     	;# 
   365     001D                     	;# 
   366     001E                     	;# 
   367     001F                     	;# 
   368     0081                     	;# 
   369     0085                     	;# 
   370     0086                     	;# 
   371     0087                     	;# 
   372     0088                     	;# 
   373     0089                     	;# 
   374     008C                     	;# 
   375     008D                     	;# 
   376     008E                     	;# 
   377     008F                     	;# 
   378     0090                     	;# 
   379     0091                     	;# 
   380     0092                     	;# 
   381     0093                     	;# 
   382     0093                     	;# 
   383     0093                     	;# 
   384     0094                     	;# 
   385     0095                     	;# 
   386     0096                     	;# 
   387     0097                     	;# 
   388     0098                     	;# 
   389     0099                     	;# 
   390     009A                     	;# 
   391     009B                     	;# 
   392     009C                     	;# 
   393     009D                     	;# 
   394     009E                     	;# 
   395     009F                     	;# 
   396     0105                     	;# 
   397     0107                     	;# 
   398     0108                     	;# 
   399     0109                     	;# 
   400     010C                     	;# 
   401     010C                     	;# 
   402     010D                     	;# 
   403     010E                     	;# 
   404     010F                     	;# 
   405     0185                     	;# 
   406     0187                     	;# 
   407     0188                     	;# 
   408     0189                     	;# 
   409     018C                     	;# 
   410     018D                     	;# 
   411     0000                     	;# 
   412     0001                     	;# 
   413     0002                     	;# 
   414     0003                     	;# 
   415     0004                     	;# 
   416     0005                     	;# 
   417     0006                     	;# 
   418     0007                     	;# 
   419     0008                     	;# 
   420     0009                     	;# 
   421     000A                     	;# 
   422     000B                     	;# 
   423     000C                     	;# 
   424     000D                     	;# 
   425     000E                     	;# 
   426     000E                     	;# 
   427     000F                     	;# 
   428     0010                     	;# 
   429     0011                     	;# 
   430     0012                     	;# 
   431     0013                     	;# 
   432     0014                     	;# 
   433     0015                     	;# 
   434     0015                     	;# 
   435     0016                     	;# 
   436     0017                     	;# 
   437     0018                     	;# 
   438     0019                     	;# 
   439     001A                     	;# 
   440     001B                     	;# 
   441     001B                     	;# 
   442     001C                     	;# 
   443     001D                     	;# 
   444     001E                     	;# 
   445     001F                     	;# 
   446     0081                     	;# 
   447     0085                     	;# 
   448     0086                     	;# 
   449     0087                     	;# 
   450     0088                     	;# 
   451     0089                     	;# 
   452     008C                     	;# 
   453     008D                     	;# 
   454     008E                     	;# 
   455     008F                     	;# 
   456     0090                     	;# 
   457     0091                     	;# 
   458     0092                     	;# 
   459     0093                     	;# 
   460     0093                     	;# 
   461     0093                     	;# 
   462     0094                     	;# 
   463     0095                     	;# 
   464     0096                     	;# 
   465     0097                     	;# 
   466     0098                     	;# 
   467     0099                     	;# 
   468     009A                     	;# 
   469     009B                     	;# 
   470     009C                     	;# 
   471     009D                     	;# 
   472     009E                     	;# 
   473     009F                     	;# 
   474     0105                     	;# 
   475     0107                     	;# 
   476     0108                     	;# 
   477     0109                     	;# 
   478     010C                     	;# 
   479     010C                     	;# 
   480     010D                     	;# 
   481     010E                     	;# 
   482     010F                     	;# 
   483     0185                     	;# 
   484     0187                     	;# 
   485     0188                     	;# 
   486     0189                     	;# 
   487     018C                     	;# 
   488     018D                     	;# 
   489                           
   490                           	psect	idataBANK1
   491     1142                     __pidataBANK1:
   492                           
   493                           ;initializer for main@F1409
   494     1142  3430               	retlw	48
   495     1143  3430               	retlw	48
   496     1144  3430               	retlw	48
   497     1145  3430               	retlw	48
   498                           
   499                           ;initializer for _backlight_state
   500     1146  3408               	retlw	8
   501                           
   502                           	psect	idataBANK3
   503     11C8                     __pidataBANK3:
   504                           
   505                           ;initializer for main@F1395
   506     11C8  3453               	retlw	83
   507     11C9  3400               	retlw	0
   508     11CA  344D               	retlw	77
   509     11CB  3400               	retlw	0
   510     11CC  3454               	retlw	84
   511     11CD  3400               	retlw	0
   512     11CE  3457               	retlw	87
   513     11CF  3400               	retlw	0
   514     11D0  3474               	retlw	116
   515     11D1  3400               	retlw	0
   516     11D2  3446               	retlw	70
   517     11D3  3400               	retlw	0
   518     11D4  3473               	retlw	115
   519     11D5  3400               	retlw	0
   520                           
   521                           	psect	nvBANK1
   522     00EE                     __pnvBANK1:
   523     00EE                     _i2c_add:
   524     00EE                     	ds	1
   525     001E                     _ADRESH	set	30
   526     001F                     _ADCON0bits	set	31
   527     001F                     _ADCON0	set	31
   528     0006                     _PORTBbits	set	6
   529     0008                     _PORTDbits	set	8
   530     0013                     _SSPBUF	set	19
   531     0014                     _SSPCONbits	set	20
   532     009E                     _ADRESL	set	158
   533     009F                     _ADCON1	set	159
   534     0085                     _TRISAbits	set	133
   535     0088                     _TRISDbits	set	136
   536     0095                     _WPUB	set	149
   537     0081                     _OPTION_REG	set	129
   538     0086                     _TRISB	set	134
   539     0088                     _TRISD	set	136
   540     0087                     _TRISCbits	set	135
   541     008F                     _OSCCON	set	143
   542     0091                     _SSPCON2bits	set	145
   543     0093                     _SSPADD	set	147
   544     0094                     _SSPSTAT	set	148
   545     0091                     _SSPCON2	set	145
   546     048E                     _ACKSTAT	set	1166
   547     0188                     _ANSELbits	set	392
   548     0189                     _ANSELH	set	393
   549                           
   550                           	psect	strings
   551     1000                     __pstrings:
   552     1000                     stringtab:
   553     1000                     __stringtab:
   554     1000                     stringcode:	
   555                           ;	String table - string pointers are 1 byte each
   556                           
   557     1000                     stringdir:
   558     1000  3010               	movlw	high stringdir
   559     1001  008A               	movwf	10
   560     1002  0804               	movf	4,w
   561     1003  0A84               	incf	4,f
   562     1004  0782               	addwf	2,f
   563     1005                     __stringbase:
   564     1005  3400               	retlw	0
   565     1006                     __end_of__stringtab:
   566     1006                     STR_21:
   567     1006  3443               	retlw	67	;'C'
   568     1007  3448               	retlw	72	;'H'
   569     1008  3445               	retlw	69	;'E'
   570     1009  3443               	retlw	67	;'C'
   571     100A  344B               	retlw	75	;'K'
   572     100B  3420               	retlw	32	;' '
   573     100C  3442               	retlw	66	;'B'
   574     100D  3449               	retlw	73	;'I'
   575     100E  3454               	retlw	84	;'T'
   576     100F  3420               	retlw	32	;' '
   577     1010  3445               	retlw	69	;'E'
   578     1011  3452               	retlw	82	;'R'
   579     1012  3452               	retlw	82	;'R'
   580     1013  344F               	retlw	79	;'O'
   581     1014  3452               	retlw	82	;'R'
   582     1015  3400               	retlw	0
   583     1016                     STR_1:
   584     1016  3449               	retlw	73	;'I'
   585     1017  344E               	retlw	78	;'N'
   586     1018  3449               	retlw	73	;'I'
   587     1019  3454               	retlw	84	;'T'
   588     101A  3449               	retlw	73	;'I'
   589     101B  3441               	retlw	65	;'A'
   590     101C  344C               	retlw	76	;'L'
   591     101D  3449               	retlw	73	;'I'
   592     101E  345A               	retlw	90	;'Z'
   593     101F  3449               	retlw	73	;'I'
   594     1020  344E               	retlw	78	;'N'
   595     1021  3447               	retlw	71	;'G'
   596     1022  3400               	retlw	0
   597     1023                     STR_12:
   598     1023  3441               	retlw	65	;'A'
   599     1024  344C               	retlw	76	;'L'
   600     1025  3441               	retlw	65	;'A'
   601     1026  3452               	retlw	82	;'R'
   602     1027  344D               	retlw	77	;'M'
   603     1028  3420               	retlw	32	;' '
   604     1029  344D               	retlw	77	;'M'
   605     102A  344F               	retlw	79	;'O'
   606     102B  3444               	retlw	68	;'D'
   607     102C  3445               	retlw	69	;'E'
   608     102D  3400               	retlw	0
   609     102E                     STR_22:
   610     102E  3441               	retlw	65	;'A'
   611     102F  344E               	retlw	78	;'N'
   612     1030  3441               	retlw	65	;'A'
   613     1031  344C               	retlw	76	;'L'
   614     1032  344F               	retlw	79	;'O'
   615     1033  3447               	retlw	71	;'G'
   616     1034  3449               	retlw	73	;'I'
   617     1035  3443               	retlw	67	;'C'
   618     1036  3400               	retlw	0
   619     1037                     STR_25:
   620     1037  344C               	retlw	76	;'L'
   621     1038  3444               	retlw	68	;'D'
   622     1039  3452               	retlw	82	;'R'
   623     103A  3420               	retlw	32	;' '
   624     103B  344D               	retlw	77	;'M'
   625     103C  344F               	retlw	79	;'O'
   626     103D  3444               	retlw	68	;'D'
   627     103E  3445               	retlw	69	;'E'
   628     103F  3400               	retlw	0
   629     1040                     STR_13:
   630     1040  3441               	retlw	65	;'A'
   631     1041  346C               	retlw	108	;'l'
   632     1042  3461               	retlw	97	;'a'
   633     1043  3472               	retlw	114	;'r'
   634     1044  346D               	retlw	109	;'m'
   635     1045  343A               	retlw	58	;':'
   636     1046  3420               	retlw	32	;' '
   637     1047  3400               	retlw	0
   638     1048                     STR_26:
   639     1048  344C               	retlw	76	;'L'
   640     1049  3445               	retlw	69	;'E'
   641     104A  3444               	retlw	68	;'D'
   642     104B  3420               	retlw	32	;' '
   643     104C  344F               	retlw	79	;'O'
   644     104D  3446               	retlw	70	;'F'
   645     104E  3446               	retlw	70	;'F'
   646     104F  3400               	retlw	0
   647     1050                     STR_18:
   648     1050  3444               	retlw	68	;'D'
   649     1051  3449               	retlw	73	;'I'
   650     1052  3447               	retlw	71	;'G'
   651     1053  3449               	retlw	73	;'I'
   652     1054  3454               	retlw	84	;'T'
   653     1055  3441               	retlw	65	;'A'
   654     1056  344C               	retlw	76	;'L'
   655     1057  3400               	retlw	0
   656     1058                     STR_27:
   657     1058  344C               	retlw	76	;'L'
   658     1059  3445               	retlw	69	;'E'
   659     105A  3444               	retlw	68	;'D'
   660     105B  3420               	retlw	32	;' '
   661     105C  3420               	retlw	32	;' '
   662     105D  344F               	retlw	79	;'O'
   663     105E  344E               	retlw	78	;'N'
   664     105F  3400               	retlw	0
   665     1060                     STR_2:
   666     1060  3454               	retlw	84	;'T'
   667     1061  3469               	retlw	105	;'i'
   668     1062  346D               	retlw	109	;'m'
   669     1063  3465               	retlw	101	;'e'
   670     1064  343A               	retlw	58	;':'
   671     1065  3420               	retlw	32	;' '
   672     1066  3400               	retlw	0
   673     1067                     STR_3:
   674     1067  3444               	retlw	68	;'D'
   675     1068  3461               	retlw	97	;'a'
   676     1069  3474               	retlw	116	;'t'
   677     106A  3465               	retlw	101	;'e'
   678     106B  343A               	retlw	58	;':'
   679     106C  3400               	retlw	0
   680     106D                     STR_19:
   681     106D  3454               	retlw	84	;'T'
   682     106E  3465               	retlw	101	;'e'
   683     106F  346D               	retlw	109	;'m'
   684     1070  3470               	retlw	112	;'p'
   685     1071  343D               	retlw	61	;'='
   686     1072  3400               	retlw	0
   687     1073                     STR_20:
   688     1073  3448               	retlw	72	;'H'
   689     1074  3475               	retlw	117	;'u'
   690     1075  346D               	retlw	109	;'m'
   691     1076  343D               	retlw	61	;'='
   692     1077  3400               	retlw	0
   693     1078                     STR_11:
   694     1078  3445               	retlw	69	;'E'
   695     1079  3452               	retlw	82	;'R'
   696     107A  3452               	retlw	82	;'R'
   697     107B  3400               	retlw	0
   698     107C                     STR_7:
   699     107C  3457               	retlw	87	;'W'
   700     107D  3465               	retlw	101	;'e'
   701     107E  3464               	retlw	100	;'d'
   702     107F  3400               	retlw	0
   703     1080                     STR_6:
   704     1080  3454               	retlw	84	;'T'
   705     1081  3475               	retlw	117	;'u'
   706     1082  3465               	retlw	101	;'e'
   707     1083  3400               	retlw	0
   708     1084                     STR_9:
   709     1084  3446               	retlw	70	;'F'
   710     1085  3472               	retlw	114	;'r'
   711     1086  3469               	retlw	105	;'i'
   712     1087  3400               	retlw	0
   713     1088                     STR_5:
   714     1088  344D               	retlw	77	;'M'
   715     1089  346F               	retlw	111	;'o'
   716     108A  346E               	retlw	110	;'n'
   717     108B  3400               	retlw	0
   718     108C                     STR_4:
   719     108C  3453               	retlw	83	;'S'
   720     108D  3475               	retlw	117	;'u'
   721     108E  346E               	retlw	110	;'n'
   722     108F  3400               	retlw	0
   723     1090                     STR_10:
   724     1090  3453               	retlw	83	;'S'
   725     1091  3461               	retlw	97	;'a'
   726     1092  3474               	retlw	116	;'t'
   727     1093  3400               	retlw	0
   728     1094                     STR_8:
   729     1094  3454               	retlw	84	;'T'
   730     1095  3468               	retlw	104	;'h'
   731     1096  3475               	retlw	117	;'u'
   732     1097  3400               	retlw	0
   733     1073                     
   734                           	psect	cinit
   735     07D7                     start_initialization:	
   736                           ; #config settings
   737                           
   738     07D7                     __initialization:
   739                           
   740                           ; Initialize objects allocated to BANK3
   741     07D7  1783               	bsf	3,7	;select IRP bank2
   742     07D8  309E               	movlw	low (__pdataBANK3+14)
   743     07D9  00FD               	movwf	btemp+-1
   744     07DA  3011               	movlw	high __pidataBANK3
   745     07DB  00FE               	movwf	btemp
   746     07DC  30C8               	movlw	low __pidataBANK3
   747     07DD  00FF               	movwf	btemp+1
   748     07DE  3090               	movlw	low __pdataBANK3
   749     07DF  0084               	movwf	4
   750     07E0  120A  158A  2008  120A  118A  	fcall	init_ram0
   751                           
   752                           ; Initialize objects allocated to BANK1
   753     07E5  1383               	bcf	3,7	;select IRP bank0
   754     07E6  30EE               	movlw	low (__pdataBANK1+5)
   755     07E7  00FD               	movwf	btemp+-1
   756     07E8  3011               	movlw	high __pidataBANK1
   757     07E9  00FE               	movwf	btemp
   758     07EA  3042               	movlw	low __pidataBANK1
   759     07EB  00FF               	movwf	btemp+1
   760     07EC  30E9               	movlw	low __pdataBANK1
   761     07ED  0084               	movwf	4
   762     07EE  120A  158A  2008  120A  118A  	fcall	init_ram0
   763                           
   764                           ; Clear objects allocated to BANK1
   765     07F3  30D4               	movlw	low __pbssBANK1
   766     07F4  0084               	movwf	4
   767     07F5  30E9               	movlw	low (__pbssBANK1+21)
   768     07F6  160A  118A  2147  120A  118A  	fcall	clear_ram0
   769                           
   770                           ; Clear objects allocated to BANK0
   771     07FB  01EF               	clrf	__pbssBANK0& (0+127)
   772     07FC                     end_of_initialization:	
   773                           ;End of C runtime variable initialization code
   774                           
   775     07FC                     __end_of__initialization:
   776     07FC  0183               	clrf	3
   777     07FD  120A  118A  29FC   	ljmp	_main	;jump to C main() function
   778                           
   779                           	psect	bssBANK0
   780     006F                     __pbssBANK0:
   781     006F                     _RS:
   782     006F                     	ds	1
   783                           
   784                           	psect	bssBANK1
   785     00D4                     __pbssBANK1:
   786     00D4                     _adc_val1:
   787     00D4                     	ds	2
   788     00D6                     _adc_val:
   789     00D6                     	ds	2
   790     00D8                     _year:
   791     00D8                     	ds	2
   792     00DA                     _month:
   793     00DA                     	ds	2
   794     00DC                     _date:
   795     00DC                     	ds	2
   796     00DE                     _day:
   797     00DE                     	ds	2
   798     00E0                     _hour:
   799     00E0                     	ds	2
   800     00E2                     _min:
   801     00E2                     	ds	2
   802     00E4                     _sec:
   803     00E4                     	ds	2
   804     00E6                     _check_bit:
   805     00E6                     	ds	2
   806     00E8                     _alarm_status:
   807     00E8                     	ds	1
   808                           
   809                           	psect	dataBANK1
   810     00E9                     __pdataBANK1:
   811     00E9                     main@F1409:
   812     00E9                     	ds	4
   813     00ED                     _backlight_state:
   814     00ED                     	ds	1
   815                           
   816                           	psect	dataBANK3
   817     0190                     __pdataBANK3:
   818     0190                     main@F1395:
   819     0190                     	ds	14
   820                           
   821                           	psect	inittext
   822     0804                     init_fetch0:	
   823                           ;	Called with low address in FSR and high address in W
   824                           
   825     0804  087E               	movf	btemp,w
   826     0805  008A               	movwf	10
   827     0806  087F               	movf	btemp+1,w
   828     0807  0082               	movwf	2
   829     0808                     init_ram0:	
   830                           ;Called with:
   831                           ;	high address of idata address in btemp 
   832                           ;	low address of idata address in btemp+1 
   833                           ;	low address of data in FSR
   834                           ;	high address + 1 of data in btemp-1
   835                           
   836     0808  120A  158A  2004  120A  158A  	fcall	init_fetch0
   837     080D  0080               	movwf	0
   838     080E  0A84               	incf	4,f
   839     080F  0804               	movf	4,w
   840     0810  067D               	xorwf	btemp+-1,w
   841     0811  1903               	btfsc	3,2
   842     0812  3400               	retlw	0
   843     0813  0AFF               	incf	btemp+1,f
   844     0814  1903               	btfsc	3,2
   845     0815  0AFE               	incf	btemp,f
   846     0816  2808               	goto	init_ram0
   847                           
   848                           	psect	clrtext
   849     1147                     clear_ram0:	
   850                           ;	Called with FSR containing the base address, and
   851                           ;	W with the last address+1
   852                           
   853     1147  0064               	clrwdt	;clear the watchdog before getting into this loop
   854     1148                     clrloop0:
   855     1148  0180               	clrf	0	;clear RAM location pointed to by FSR
   856     1149  0A84               	incf	4,f	;increment pointer
   857     114A  0604               	xorwf	4,w	;XOR with final address
   858     114B  1903               	btfsc	3,2	;have we reached the end yet?
   859     114C  3400               	retlw	0	;all done for this memory range, return
   860     114D  0604               	xorwf	4,w	;XOR again to restore value
   861     114E  2948               	goto	clrloop0	;do the next byte
   862                           
   863                           	psect	cstackBANK1
   864     00A0                     __pcstackBANK1:
   865     00A0                     ??_main:
   866                           
   867                           ; 1 bytes @ 0x0
   868     00A0                     	ds	4
   869     00A4                     main@week_days:
   870                           
   871                           ; 14 bytes @ 0x4
   872     00A4                     	ds	14
   873     00B2                     main@rh_octet_2:
   874                           
   875                           ; 2 bytes @ 0x12
   876     00B2                     	ds	2
   877     00B4                     main@temp_octet_2:
   878                           
   879                           ; 2 bytes @ 0x14
   880     00B4                     	ds	2
   881     00B6                     main@sec_0:
   882                           
   883                           ; 1 bytes @ 0x16
   884     00B6                     	ds	1
   885     00B7                     main@sec_1:
   886                           
   887                           ; 1 bytes @ 0x17
   888     00B7                     	ds	1
   889     00B8                     main@day_1:
   890                           
   891                           ; 1 bytes @ 0x18
   892     00B8                     	ds	1
   893     00B9                     main@day_0:
   894                           
   895                           ; 1 bytes @ 0x19
   896     00B9                     	ds	1
   897     00BA                     main@month_1:
   898                           
   899                           ; 1 bytes @ 0x1A
   900     00BA                     	ds	1
   901     00BB                     main@month_0:
   902                           
   903                           ; 1 bytes @ 0x1B
   904     00BB                     	ds	1
   905     00BC                     main@year_1:
   906                           
   907                           ; 1 bytes @ 0x1C
   908     00BC                     	ds	1
   909     00BD                     main@year_0:
   910                           
   911                           ; 1 bytes @ 0x1D
   912     00BD                     	ds	1
   913     00BE                     main@time_aux:
   914                           
   915                           ; 2 bytes @ 0x1E
   916     00BE                     	ds	2
   917     00C0                     main@rh_octet_1:
   918                           
   919                           ; 2 bytes @ 0x20
   920     00C0                     	ds	2
   921     00C2                     main@temp_octet_1:
   922                           
   923                           ; 2 bytes @ 0x22
   924     00C2                     	ds	2
   925     00C4                     main@min_0:
   926                           
   927                           ; 1 bytes @ 0x24
   928     00C4                     	ds	1
   929     00C5                     main@min_1:
   930                           
   931                           ; 1 bytes @ 0x25
   932     00C5                     	ds	1
   933     00C6                     main@hour_0:
   934                           
   935                           ; 1 bytes @ 0x26
   936     00C6                     	ds	1
   937     00C7                     main@hour_1:
   938                           
   939                           ; 1 bytes @ 0x27
   940     00C7                     	ds	1
   941     00C8                     main@j:
   942                           
   943                           ; 1 bytes @ 0x28
   944     00C8                     	ds	1
   945     00C9                     main@i:
   946                           
   947                           ; 1 bytes @ 0x29
   948     00C9                     	ds	1
   949     00CA                     main@aux:
   950                           
   951                           ; 2 bytes @ 0x2A
   952     00CA                     	ds	2
   953     00CC                     main@device_mode:
   954                           
   955                           ; 1 bytes @ 0x2C
   956     00CC                     	ds	1
   957     00CD                     main@alarm_digit:
   958                           
   959                           ; 4 bytes @ 0x2D
   960     00CD                     	ds	4
   961     00D1                     main@ok:
   962                           
   963                           ; 2 bytes @ 0x31
   964     00D1                     	ds	2
   965     00D3                     main@pos:
   966                           
   967                           ; 1 bytes @ 0x33
   968     00D3                     	ds	1
   969                           
   970                           	psect	cstackCOMMON
   971     0070                     __pcstackCOMMON:
   972     0070                     ?___flge:
   973     0070                     ?_lcd_cmd:	
   974                           ; 1 bit 
   975                           
   976     0070                     ?_rtc_readTime:	
   977                           ; 1 bytes @ 0x0
   978                           
   979     0070                     ?_rtc_convUpperNibble:	
   980                           ; 1 bytes @ 0x0
   981                           
   982     0070                     ??_rtc_convUpperNibble:	
   983                           ; 1 bytes @ 0x0
   984                           
   985     0070                     ?_rtc_convLowerNibble:	
   986                           ; 1 bytes @ 0x0
   987                           
   988     0070                     ??_rtc_convLowerNibble:	
   989                           ; 1 bytes @ 0x0
   990                           
   991     0070                     ?_rtc_readDate:	
   992                           ; 1 bytes @ 0x0
   993                           
   994     0070                     ?_DHT11_Start:	
   995                           ; 1 bytes @ 0x0
   996                           
   997     0070                     ??_DHT11_Start:	
   998                           ; 1 bytes @ 0x0
   999                           
  1000     0070                     ?_DHT11_checkResponse:	
  1001                           ; 1 bytes @ 0x0
  1002                           
  1003     0070                     ??_DHT11_checkResponse:	
  1004                           ; 1 bytes @ 0x0
  1005                           
  1006     0070                     ?_DHT11_readData:	
  1007                           ; 1 bytes @ 0x0
  1008                           
  1009     0070                     ??_DHT11_readData:	
  1010                           ; 1 bytes @ 0x0
  1011                           
  1012     0070                     ?_LM35_initADC:	
  1013                           ; 1 bytes @ 0x0
  1014                           
  1015     0070                     ??_LM35_initADC:	
  1016                           ; 1 bytes @ 0x0
  1017                           
  1018     0070                     ?_HIH5030_initADC:	
  1019                           ; 1 bytes @ 0x0
  1020                           
  1021     0070                     ??_HIH5030_initADC:	
  1022                           ; 1 bytes @ 0x0
  1023                           
  1024     0070                     ?_LDR1_initADC:	
  1025                           ; 1 bytes @ 0x0
  1026                           
  1027     0070                     ??_LDR1_initADC:	
  1028                           ; 1 bytes @ 0x0
  1029                           
  1030     0070                     ?_i2c_masterInit:	
  1031                           ; 1 bytes @ 0x0
  1032                           
  1033     0070                     ??_i2c_masterInit:	
  1034                           ; 1 bytes @ 0x0
  1035                           
  1036     0070                     ?_i2c_masterWait:	
  1037                           ; 1 bytes @ 0x0
  1038                           
  1039     0070                     ??_i2c_masterWait:	
  1040                           ; 1 bytes @ 0x0
  1041                           
  1042     0070                     ?_i2c_masterStart:	
  1043                           ; 1 bytes @ 0x0
  1044                           
  1045     0070                     ??_i2c_masterStart:	
  1046                           ; 1 bytes @ 0x0
  1047                           
  1048     0070                     ?_i2c_masterRepeatedStart:	
  1049                           ; 1 bytes @ 0x0
  1050                           
  1051     0070                     ??_i2c_masterRepeatedStart:	
  1052                           ; 1 bytes @ 0x0
  1053                           
  1054     0070                     ?_i2c_masterStop:	
  1055                           ; 1 bytes @ 0x0
  1056                           
  1057     0070                     ??_i2c_masterStop:	
  1058                           ; 1 bytes @ 0x0
  1059                           
  1060     0070                     ?_i2c_masterWrite:	
  1061                           ; 1 bytes @ 0x0
  1062                           
  1063     0070                     ??_i2c_masterWrite:	
  1064                           ; 1 bytes @ 0x0
  1065                           
  1066     0070                     ?_i2c_readByte:	
  1067                           ; 1 bytes @ 0x0
  1068                           
  1069     0070                     ??_i2c_readByte:	
  1070                           ; 1 bytes @ 0x0
  1071                           
  1072     0070                     ?_lcd_init:	
  1073                           ; 1 bytes @ 0x0
  1074                           
  1075     0070                     ?_io_expanderWrite:	
  1076                           ; 1 bytes @ 0x0
  1077                           
  1078     0070                     ?_lcd_write4Bit:	
  1079                           ; 1 bytes @ 0x0
  1080                           
  1081     0070                     ?_lcd_writeChar:	
  1082                           ; 1 bytes @ 0x0
  1083                           
  1084     0070                     ?_lcd_writeString:	
  1085                           ; 1 bytes @ 0x0
  1086                           
  1087     0070                     ?_lcd_clear:	
  1088                           ; 1 bytes @ 0x0
  1089                           
  1090     0070                     ?_main:	
  1091                           ; 1 bytes @ 0x0
  1092                           
  1093     0070                     ?__Umul8_16:	
  1094                           ; 1 bytes @ 0x0
  1095                           
  1096     0070                     ?___wmul:	
  1097                           ; 2 bytes @ 0x0
  1098                           
  1099     0070                     ?___awdiv:	
  1100                           ; 2 bytes @ 0x0
  1101                           
  1102     0070                     ?___fltol:	
  1103                           ; 2 bytes @ 0x0
  1104                           
  1105     0070                     ?___fladd:	
  1106                           ; 4 bytes @ 0x0
  1107                           
  1108     0070                     i2c_masterWrite@data:	
  1109                           ; 4 bytes @ 0x0
  1110                           
  1111     0070                     i2c_readByte@ack:	
  1112                           ; 1 bytes @ 0x0
  1113                           
  1114     0070                     rtc_convLowerNibble@digit:	
  1115                           ; 1 bytes @ 0x0
  1116                           
  1117     0070                     __Umul8_16@multiplicand:	
  1118                           ; 1 bytes @ 0x0
  1119                           
  1120     0070                     ___wmul@multiplier:	
  1121                           ; 1 bytes @ 0x0
  1122                           
  1123     0070                     ___awdiv@divisor:	
  1124                           ; 2 bytes @ 0x0
  1125                           
  1126     0070                     ___flge@ff1:	
  1127                           ; 2 bytes @ 0x0
  1128                           
  1129     0070                     ___fltol@f1:	
  1130                           ; 4 bytes @ 0x0
  1131                           
  1132     0070                     ___fladd@b:	
  1133                           ; 4 bytes @ 0x0
  1134                           
  1135                           
  1136                           ; 4 bytes @ 0x0
  1137     0070                     	ds	1
  1138     0071                     ??_io_expanderWrite:
  1139     0071                     i2c_readByte@incoming_data:	
  1140                           ; 1 bytes @ 0x1
  1141                           
  1142     0071                     io_expanderWrite@data:	
  1143                           ; 1 bytes @ 0x1
  1144                           
  1145     0071                     rtc_convUpperNibble@digit:	
  1146                           ; 1 bytes @ 0x1
  1147                           
  1148     0071                     DHT11_readData@data:	
  1149                           ; 1 bytes @ 0x1
  1150                           
  1151                           
  1152                           ; 1 bytes @ 0x1
  1153     0071                     	ds	1
  1154     0072                     ??_rtc_readTime:
  1155     0072                     ??_rtc_readDate:	
  1156                           ; 1 bytes @ 0x2
  1157                           
  1158     0072                     ??__Umul8_16:	
  1159                           ; 1 bytes @ 0x2
  1160                           
  1161     0072                     ??_lcd_write4Bit:	
  1162                           ; 1 bytes @ 0x2
  1163                           
  1164     0072                     DHT11_readData@i:	
  1165                           ; 1 bytes @ 0x2
  1166                           
  1167     0072                     ___wmul@multiplicand:	
  1168                           ; 1 bytes @ 0x2
  1169                           
  1170     0072                     ___awdiv@dividend:	
  1171                           ; 2 bytes @ 0x2
  1172                           
  1173                           
  1174                           ; 2 bytes @ 0x2
  1175     0072                     	ds	1
  1176     0073                     lcd_write4Bit@nibble:
  1177                           
  1178                           ; 1 bytes @ 0x3
  1179     0073                     	ds	1
  1180     0074                     ??_lcd_cmd:
  1181     0074                     ??_lcd_writeChar:	
  1182                           ; 1 bytes @ 0x4
  1183                           
  1184     0074                     ??___wmul:	
  1185                           ; 1 bytes @ 0x4
  1186                           
  1187     0074                     ??___awdiv:	
  1188                           ; 1 bytes @ 0x4
  1189                           
  1190     0074                     ??___fltol:	
  1191                           ; 1 bytes @ 0x4
  1192                           
  1193     0074                     rtc_readTime@clock_address:	
  1194                           ; 1 bytes @ 0x4
  1195                           
  1196     0074                     rtc_readDate@calendar_address:	
  1197                           ; 1 bytes @ 0x4
  1198                           
  1199     0074                     ___awdiv@counter:	
  1200                           ; 1 bytes @ 0x4
  1201                           
  1202     0074                     ___wmul@product:	
  1203                           ; 1 bytes @ 0x4
  1204                           
  1205     0074                     __Umul8_16@product:	
  1206                           ; 2 bytes @ 0x4
  1207                           
  1208     0074                     ___flge@ff2:	
  1209                           ; 2 bytes @ 0x4
  1210                           
  1211     0074                     ___fladd@a:	
  1212                           ; 4 bytes @ 0x4
  1213                           
  1214                           
  1215                           ; 4 bytes @ 0x4
  1216     0074                     	ds	1
  1217     0075                     lcd_cmd@cmd:
  1218     0075                     lcd_writeChar@data:	
  1219                           ; 1 bytes @ 0x5
  1220                           
  1221     0075                     ___awdiv@sign:	
  1222                           ; 1 bytes @ 0x5
  1223                           
  1224                           
  1225                           ; 1 bytes @ 0x5
  1226     0075                     	ds	1
  1227     0076                     ??_lcd_init:
  1228     0076                     ??_lcd_writeString:	
  1229                           ; 1 bytes @ 0x6
  1230                           
  1231     0076                     ?_lcd_setCursor:	
  1232                           ; 1 bytes @ 0x6
  1233                           
  1234     0076                     ??_lcd_clear:	
  1235                           ; 1 bytes @ 0x6
  1236                           
  1237     0076                     ?___xxtofl:	
  1238                           ; 1 bytes @ 0x6
  1239                           
  1240     0076                     lcd_setCursor@col:	
  1241                           ; 4 bytes @ 0x6
  1242                           
  1243     0076                     lcd_writeString@i:	
  1244                           ; 1 bytes @ 0x6
  1245                           
  1246     0076                     ___awdiv@quotient:	
  1247                           ; 2 bytes @ 0x6
  1248                           
  1249     0076                     __Umul8_16@word_mpld:	
  1250                           ; 2 bytes @ 0x6
  1251                           
  1252     0076                     ___xxtofl@val:	
  1253                           ; 2 bytes @ 0x6
  1254                           
  1255                           
  1256                           ; 4 bytes @ 0x6
  1257     0076                     	ds	1
  1258     0077                     ??_lcd_setCursor:
  1259     0077                     lcd_setCursor@row:	
  1260                           ; 1 bytes @ 0x7
  1261                           
  1262                           
  1263                           ; 1 bytes @ 0x7
  1264     0077                     	ds	1
  1265     0078                     ??___flge:
  1266     0078                     ?_LDR1_readData:	
  1267                           ; 1 bytes @ 0x8
  1268                           
  1269     0078                     ?___awmod:	
  1270                           ; 2 bytes @ 0x8
  1271                           
  1272     0078                     lcd_init@i2c_Add:	
  1273                           ; 2 bytes @ 0x8
  1274                           
  1275     0078                     lcd_writeString@str:	
  1276                           ; 1 bytes @ 0x8
  1277                           
  1278     0078                     ___fltol@sign1:	
  1279                           ; 1 bytes @ 0x8
  1280                           
  1281     0078                     ___fladd@signs:	
  1282                           ; 1 bytes @ 0x8
  1283                           
  1284     0078                     __Umul8_16@multiplier:	
  1285                           ; 1 bytes @ 0x8
  1286                           
  1287     0078                     ___awmod@divisor:	
  1288                           ; 1 bytes @ 0x8
  1289                           
  1290                           
  1291                           ; 2 bytes @ 0x8
  1292     0078                     	ds	1
  1293     0079                     ___fltol@exp1:
  1294     0079                     ___fladd@aexp:	
  1295                           ; 1 bytes @ 0x9
  1296                           
  1297                           
  1298                           ; 1 bytes @ 0x9
  1299     0079                     	ds	1
  1300     007A                     ??_LDR1_readData:
  1301     007A                     ??___xxtofl:	
  1302                           ; 1 bytes @ 0xA
  1303                           
  1304     007A                     ___fladd@bexp:	
  1305                           ; 1 bytes @ 0xA
  1306                           
  1307     007A                     ___awmod@dividend:	
  1308                           ; 1 bytes @ 0xA
  1309                           
  1310                           
  1311                           ; 2 bytes @ 0xA
  1312     007A                     	ds	1
  1313     007B                     ___fladd@grs:
  1314                           
  1315                           ; 1 bytes @ 0xB
  1316     007B                     	ds	1
  1317     007C                     ??___awmod:
  1318     007C                     ___awmod@counter:	
  1319                           ; 1 bytes @ 0xC
  1320                           
  1321                           
  1322                           ; 1 bytes @ 0xC
  1323     007C                     	ds	1
  1324     007D                     ___awmod@sign:
  1325                           
  1326                           ; 1 bytes @ 0xD
  1327     007D                     	ds	1
  1328     007E                     ??_roundFloat:
  1329     007E                     ??_printInteger:	
  1330                           ; 1 bytes @ 0xE
  1331                           
  1332     007E                     ??___flsub:	
  1333                           ; 1 bytes @ 0xE
  1334                           
  1335                           
  1336                           	psect	cstackBANK0
  1337     0020                     __pcstackBANK0:	
  1338                           ; 1 bytes @ 0xE
  1339                           
  1340     0020                     ??___fladd:
  1341     0020                     ___xxtofl@sign:	
  1342                           ; 1 bytes @ 0x0
  1343                           
  1344                           
  1345                           ; 1 bytes @ 0x0
  1346     0020                     	ds	1
  1347     0021                     ___xxtofl@exp:
  1348                           
  1349                           ; 1 bytes @ 0x1
  1350     0021                     	ds	1
  1351     0022                     ___xxtofl@arg:
  1352                           
  1353                           ; 4 bytes @ 0x2
  1354     0022                     	ds	6
  1355     0028                     ?___flsub:
  1356     0028                     ?___fldiv:	
  1357                           ; 4 bytes @ 0x8
  1358                           
  1359     0028                     ___flsub@a:	
  1360                           ; 4 bytes @ 0x8
  1361                           
  1362     0028                     ___fldiv@a:	
  1363                           ; 4 bytes @ 0x8
  1364                           
  1365                           
  1366                           ; 4 bytes @ 0x8
  1367     0028                     	ds	4
  1368     002C                     ___flsub@b:
  1369     002C                     ___fldiv@b:	
  1370                           ; 4 bytes @ 0xC
  1371                           
  1372                           
  1373                           ; 4 bytes @ 0xC
  1374     002C                     	ds	4
  1375     0030                     ??___fldiv:
  1376     0030                     ?_roundFloat:	
  1377                           ; 1 bytes @ 0x10
  1378                           
  1379     0030                     roundFloat@num:	
  1380                           ; 2 bytes @ 0x10
  1381                           
  1382                           
  1383                           ; 4 bytes @ 0x10
  1384     0030                     	ds	4
  1385     0034                     roundFloat@decimal:
  1386                           
  1387                           ; 4 bytes @ 0x14
  1388     0034                     	ds	1
  1389     0035                     ___fldiv@rem:
  1390                           
  1391                           ; 4 bytes @ 0x15
  1392     0035                     	ds	3
  1393     0038                     roundFloat@rounded:
  1394                           
  1395                           ; 2 bytes @ 0x18
  1396     0038                     	ds	1
  1397     0039                     ___fldiv@sign:
  1398                           
  1399                           ; 1 bytes @ 0x19
  1400     0039                     	ds	1
  1401     003A                     ___fldiv@new_exp:
  1402                           
  1403                           ; 2 bytes @ 0x1A
  1404     003A                     	ds	2
  1405     003C                     ___fldiv@grs:
  1406                           
  1407                           ; 4 bytes @ 0x1C
  1408     003C                     	ds	4
  1409     0040                     ___fldiv@bexp:
  1410                           
  1411                           ; 1 bytes @ 0x20
  1412     0040                     	ds	1
  1413     0041                     ___fldiv@aexp:
  1414                           
  1415                           ; 1 bytes @ 0x21
  1416     0041                     	ds	1
  1417     0042                     ?___flmul:
  1418     0042                     ___flmul@b:	
  1419                           ; 4 bytes @ 0x22
  1420                           
  1421                           
  1422                           ; 4 bytes @ 0x22
  1423     0042                     	ds	4
  1424     0046                     ___flmul@a:
  1425                           
  1426                           ; 4 bytes @ 0x26
  1427     0046                     	ds	4
  1428     004A                     ??___flmul:
  1429                           
  1430                           ; 1 bytes @ 0x2A
  1431     004A                     	ds	5
  1432     004F                     ___flmul@sign:
  1433                           
  1434                           ; 1 bytes @ 0x2F
  1435     004F                     	ds	1
  1436     0050                     ___flmul@grs:
  1437                           
  1438                           ; 4 bytes @ 0x30
  1439     0050                     	ds	4
  1440     0054                     ___flmul@aexp:
  1441                           
  1442                           ; 1 bytes @ 0x34
  1443     0054                     	ds	1
  1444     0055                     ___flmul@bexp:
  1445                           
  1446                           ; 1 bytes @ 0x35
  1447     0055                     	ds	1
  1448     0056                     ___flmul@prod:
  1449                           
  1450                           ; 4 bytes @ 0x36
  1451     0056                     	ds	4
  1452     005A                     ___flmul@temp:
  1453                           
  1454                           ; 2 bytes @ 0x3A
  1455     005A                     	ds	2
  1456     005C                     ?_LM35_readData:
  1457     005C                     ?_HIH5030_readData:	
  1458                           ; 2 bytes @ 0x3C
  1459                           
  1460                           
  1461                           ; 2 bytes @ 0x3C
  1462     005C                     	ds	2
  1463     005E                     ??_LM35_readData:
  1464     005E                     ??_HIH5030_readData:	
  1465                           ; 1 bytes @ 0x3E
  1466                           
  1467                           
  1468                           ; 1 bytes @ 0x3E
  1469     005E                     	ds	3
  1470     0061                     LM35_readData@temperature:
  1471     0061                     HIH5030_readData@RH:	
  1472                           ; 4 bytes @ 0x41
  1473                           
  1474                           
  1475                           ; 4 bytes @ 0x41
  1476     0061                     	ds	4
  1477     0065                     HIH5030_readData@x:
  1478                           
  1479                           ; 4 bytes @ 0x45
  1480     0065                     	ds	4
  1481     0069                     ?_printInteger:
  1482     0069                     printInteger@num:	
  1483                           ; 1 bytes @ 0x49
  1484                           
  1485                           
  1486                           ; 2 bytes @ 0x49
  1487     0069                     	ds	2
  1488     006B                     printInteger@cifra:
  1489                           
  1490                           ; 2 bytes @ 0x4B
  1491     006B                     	ds	2
  1492     006D                     printInteger@divisor:
  1493                           
  1494                           ; 2 bytes @ 0x4D
  1495     006D                     	ds	2
  1496                           
  1497                           	psect	maintext
  1498     01FC                     __pmaintext:	
  1499 ;;
  1500 ;;Main: autosize = 0, tempsize = 4, incstack = 0, save=0
  1501 ;;
  1502 ;; *************** function _main *****************
  1503 ;; Defined at:
  1504 ;;		line 30 in file "main.c"
  1505 ;; Parameters:    Size  Location     Type
  1506 ;;		None
  1507 ;; Auto vars:     Size  Location     Type
  1508 ;;  i               1   41[BANK1 ] unsigned char 
  1509 ;;  j               1   40[BANK1 ] unsigned char 
  1510 ;;  temp_octet_1    2   34[BANK1 ] int 
  1511 ;;  rh_octet_1      2   32[BANK1 ] int 
  1512 ;;  temp_octet_2    2   20[BANK1 ] int 
  1513 ;;  rh_octet_2      2   18[BANK1 ] int 
  1514 ;;  aux             2   42[BANK1 ] int 
  1515 ;;  trigger         1    0        unsigned char 
  1516 ;;  week_days      14    4[BANK1 ] int [7]
  1517 ;;  alarm_digit     4   45[BANK1 ] unsigned char [4]
  1518 ;;  ok              2   49[BANK1 ] int 
  1519 ;;  time_aux        2   30[BANK1 ] int 
  1520 ;;  pos             1   51[BANK1 ] unsigned char 
  1521 ;;  device_mode     1   44[BANK1 ] unsigned char 
  1522 ;;  hour_1          1   39[BANK1 ] unsigned char 
  1523 ;;  hour_0          1   38[BANK1 ] unsigned char 
  1524 ;;  min_1           1   37[BANK1 ] unsigned char 
  1525 ;;  min_0           1   36[BANK1 ] unsigned char 
  1526 ;;  year_0          1   29[BANK1 ] unsigned char 
  1527 ;;  year_1          1   28[BANK1 ] unsigned char 
  1528 ;;  month_0         1   27[BANK1 ] unsigned char 
  1529 ;;  month_1         1   26[BANK1 ] unsigned char 
  1530 ;;  day_0           1   25[BANK1 ] unsigned char 
  1531 ;;  day_1           1   24[BANK1 ] unsigned char 
  1532 ;;  sec_1           1   23[BANK1 ] unsigned char 
  1533 ;;  sec_0           1   22[BANK1 ] unsigned char 
  1534 ;; Return value:  Size  Location     Type
  1535 ;;                  1    wreg      void 
  1536 ;; Registers used:
  1537 ;;		wreg, fsr0l, fsr0h, status,2, status,0, btemp+1, pclath, cstack
  1538 ;; Tracked objects:
  1539 ;;		On entry : B00/0
  1540 ;;		On exit  : 0/0
  1541 ;;		Unchanged: 0/0
  1542 ;; Data sizes:     COMMON   BANK0   BANK1   BANK3   BANK2
  1543 ;;      Params:         0       0       0       0       0
  1544 ;;      Locals:         0       0      48       0       0
  1545 ;;      Temps:          0       0       4       0       0
  1546 ;;      Totals:         0       0      52       0       0
  1547 ;;Total ram usage:       52 bytes
  1548 ;; Hardware stack levels required when called: 6
  1549 ;; This function calls:
  1550 ;;		_DHT11_Start
  1551 ;;		_DHT11_checkResponse
  1552 ;;		_DHT11_readData
  1553 ;;		_HIH5030_initADC
  1554 ;;		_HIH5030_readData
  1555 ;;		_LDR1_initADC
  1556 ;;		_LDR1_readData
  1557 ;;		_LM35_initADC
  1558 ;;		_LM35_readData
  1559 ;;		_i2c_masterInit
  1560 ;;		_lcd_clear
  1561 ;;		_lcd_init
  1562 ;;		_lcd_setCursor
  1563 ;;		_lcd_writeChar
  1564 ;;		_lcd_writeString
  1565 ;;		_printInteger
  1566 ;;		_rtc_convLowerNibble
  1567 ;;		_rtc_convUpperNibble
  1568 ;;		_rtc_readDate
  1569 ;;		_rtc_readTime
  1570 ;; This function is called by:
  1571 ;;		Startup code after reset
  1572 ;; This function uses a non-reentrant model
  1573 ;;
  1574                           
  1575     01FC                     _main:	
  1576                           ;psect for function _main
  1577                           
  1578     01FC                     l3490:	
  1579                           ;incstack = 0
  1580                           ; Regs used in _main: [wreg-fsr0h+status,2+status,0+btemp+1+pclath+cstack]
  1581                           
  1582                           
  1583                           ;main.c: 31:     char pos = 8;
  1584     01FC  3008               	movlw	8
  1585     01FD  1683               	bsf	3,5	;RP0=1, select bank1
  1586     01FE  1303               	bcf	3,6	;RP1=0, select bank1
  1587     01FF  00D3               	movwf	main@pos^(0+128)
  1588     0200                     l3492:
  1589                           
  1590                           ;main.c: 32:     unsigned char device_mode = 0;
  1591     0200  01CC               	clrf	main@device_mode^(0+128)
  1592     0201                     l3494:
  1593                           
  1594                           ;main.c: 33:     int week_days[7] = {'S', 'M', 'T', 'W', 't', 'F', 's'};
  1595     0201  30A4               	movlw	main@week_days& (0+255)
  1596     0202  0084               	movwf	4
  1597     0203  3090               	movlw	low main@F1395
  1598     0204  00A0               	movwf	??_main^(0+128)
  1599     0205  0804               	movf	4,w
  1600     0206  00A1               	movwf	(??_main^(0+128)+1)
  1601     0207  300E               	movlw	14
  1602     0208  00A2               	movwf	(??_main^(0+128)+2)
  1603     0209                     u4480:
  1604     0209  0820               	movf	??_main^(0+128),w
  1605     020A  0084               	movwf	4
  1606     020B  1783               	bsf	3,7	;select IRP bank3
  1607     020C  0800               	movf	0,w
  1608     020D  00A3               	movwf	(??_main^(0+128)+3)
  1609     020E  0AA0               	incf	??_main^(0+128),f
  1610     020F  0821               	movf	(??_main^(0+128)+1),w
  1611     0210  0084               	movwf	4
  1612     0211  1383               	bcf	3,7	;select IRP bank1
  1613     0212  0823               	movf	(??_main^(0+128)+3),w
  1614     0213  0080               	movwf	0
  1615     0214  0AA1               	incf	(??_main^(0+128)+1),f
  1616     0215  0BA2               	decfsz	(??_main^(0+128)+2),f
  1617     0216  2A09               	goto	u4480
  1618     0217                     l3496:
  1619                           
  1620                           ;main.c: 34:     char sec_0, sec_1, min_0, min_1, hour_0, hour_1;;main.c: 35:     char d
      +                          ay_1, day_0, month_1, month_0, year_1, year_0;;main.c: 36:     char alarm_digit[4] = {'0
      +                          ','0','0','0'};
  1621     0217  086C               	movf	(main@F1409+3)^(0+128),w
  1622     0218  00D0               	movwf	(main@alarm_digit+3)^(0+128)
  1623     0219  086B               	movf	(main@F1409+2)^(0+128),w
  1624     021A  00CF               	movwf	(main@alarm_digit+2)^(0+128)
  1625     021B  086A               	movf	(main@F1409+1)^(0+128),w
  1626     021C  00CE               	movwf	(main@alarm_digit+1)^(0+128)
  1627     021D  0869               	movf	main@F1409^(0+128),w
  1628     021E  00CD               	movwf	main@alarm_digit^(0+128)
  1629     021F                     l3498:
  1630                           
  1631                           ;main.c: 37:     int ok, time_aux = 1;
  1632     021F  3001               	movlw	1
  1633     0220  00BE               	movwf	main@time_aux^(0+128)
  1634     0221  3000               	movlw	0
  1635     0222  00BF               	movwf	(main@time_aux^(0+128)+1)
  1636     0223                     l3500:
  1637                           
  1638                           ;main.c: 39:     OSCCON |= 0x77;
  1639     0223  3077               	movlw	119
  1640     0224  00FF               	movwf	btemp+1
  1641     0225  087F               	movf	btemp+1,w
  1642     0226  048F               	iorwf	15,f	;volatile
  1643     0227                     l3502:
  1644                           
  1645                           ;main.c: 40:     TRISCbits.TRISC3 |= 1;
  1646     0227  1587               	bsf	7,3	;volatile
  1647     0228                     l3504:
  1648                           
  1649                           ;main.c: 41:     TRISCbits.TRISC4 |= 1;
  1650     0228  1607               	bsf	7,4	;volatile
  1651     0229                     l3506:
  1652                           
  1653                           ;main.c: 42:     i2c_masterInit();
  1654     0229  160A  118A  2197  120A  118A  	fcall	_i2c_masterInit
  1655     022E                     l3508:
  1656                           
  1657                           ;main.c: 43:     lcd_init(0x4E);
  1658     022E  304E               	movlw	78
  1659     022F  160A  118A  2647  120A  118A  	fcall	_lcd_init
  1660     0234                     l3510:
  1661                           
  1662                           ;main.c: 45:     TRISD &= 0x00;
  1663     0234  1683               	bsf	3,5	;RP0=1, select bank1
  1664     0235  1303               	bcf	3,6	;RP1=0, select bank1
  1665     0236  0188               	clrf	8	;volatile
  1666     0237                     l3512:
  1667                           
  1668                           ;main.c: 46:     TRISB &= 0xFF;
  1669     0237  0806               	movf	6,w	;volatile
  1670     0238                     l3514:
  1671                           
  1672                           ;main.c: 47:     ANSELH &= 0x00;
  1673     0238  1683               	bsf	3,5	;RP0=1, select bank3
  1674     0239  1703               	bsf	3,6	;RP1=1, select bank3
  1675     023A  0189               	clrf	9	;volatile
  1676     023B                     l3516:
  1677                           
  1678                           ;main.c: 48:     ANSELbits.ANS0 |= 1;
  1679     023B  1408               	bsf	8,0	;volatile
  1680     023C                     l3518:
  1681                           
  1682                           ;main.c: 49:     ANSELbits.ANS1 |= 1;
  1683     023C  1488               	bsf	8,1	;volatile
  1684     023D                     l3520:
  1685                           
  1686                           ;main.c: 50:     PORTDbits.RD2 &= 0;
  1687     023D  1283               	bcf	3,5	;RP0=0, select bank0
  1688     023E  1303               	bcf	3,6	;RP1=0, select bank0
  1689     023F  1108               	bcf	8,2	;volatile
  1690     0240                     l3522:
  1691                           
  1692                           ;main.c: 52:     OPTION_REG &= 0x00;
  1693     0240  1683               	bsf	3,5	;RP0=1, select bank1
  1694     0241  1303               	bcf	3,6	;RP1=0, select bank1
  1695     0242  0181               	clrf	1	;volatile
  1696     0243                     l3524:
  1697                           
  1698                           ;main.c: 53:     WPUB &= 0xFF;
  1699     0243  0815               	movf	21,w	;volatile
  1700     0244                     l3526:
  1701                           
  1702                           ;main.c: 55:     lcd_setCursor(1,2);
  1703     0244  3002               	movlw	2
  1704     0245  00F6               	movwf	lcd_setCursor@col
  1705     0246  3001               	movlw	1
  1706     0247  160A  118A  223F  120A  118A  	fcall	_lcd_setCursor
  1707     024C                     l3528:
  1708                           
  1709                           ;main.c: 56:     lcd_writeString("INITIALIZING");
  1710     024C  3011               	movlw	(low ((STR_1-__stringbase)| (0+32768)))& (0+255)
  1711     024D  160A  118A  2301  120A  118A  	fcall	_lcd_writeString
  1712     0252                     l3530:
  1713                           
  1714                           ;main.c: 57:     _delay((unsigned long)((1000)*(16000000/4000.0)));
  1715     0252  3015               	movlw	21
  1716     0253  1683               	bsf	3,5	;RP0=1, select bank1
  1717     0254  1303               	bcf	3,6	;RP1=0, select bank1
  1718     0255  00A2               	movwf	(??_main^(0+128)+2)
  1719     0256  304B               	movlw	75
  1720     0257  00A1               	movwf	(??_main^(0+128)+1)
  1721     0258  30BD               	movlw	189
  1722     0259  00A0               	movwf	??_main^(0+128)
  1723     025A                     u5047:
  1724     025A  0BA0               	decfsz	??_main^(0+128),f
  1725     025B  2A5A               	goto	u5047
  1726     025C  0BA1               	decfsz	(??_main^(0+128)+1),f
  1727     025D  2A5A               	goto	u5047
  1728     025E  0BA2               	decfsz	(??_main^(0+128)+2),f
  1729     025F  2A5A               	goto	u5047
  1730     0260  2A61               	nop2
  1731     0261                     l3532:
  1732                           
  1733                           ;main.c: 59:     lcd_clear();
  1734     0261  160A  118A  21A3  120A  118A  	fcall	_lcd_clear
  1735     0266                     l3534:
  1736                           
  1737                           ;main.c: 60:     lcd_setCursor(1,1);
  1738     0266  01F6               	clrf	lcd_setCursor@col
  1739     0267  0AF6               	incf	lcd_setCursor@col,f
  1740     0268  3001               	movlw	1
  1741     0269  160A  118A  223F  120A  118A  	fcall	_lcd_setCursor
  1742     026E                     l3536:
  1743                           
  1744                           ;main.c: 63:         ok=1;
  1745     026E  3001               	movlw	1
  1746     026F  1683               	bsf	3,5	;RP0=1, select bank1
  1747     0270  1303               	bcf	3,6	;RP1=0, select bank1
  1748     0271  00D1               	movwf	main@ok^(0+128)
  1749     0272  3000               	movlw	0
  1750     0273  00D2               	movwf	(main@ok^(0+128)+1)
  1751     0274                     l3538:
  1752                           
  1753                           ;main.c: 65:         rtc_readTime(0x01);
  1754     0274  3001               	movlw	1
  1755     0275  160A  118A  240B  120A  118A  	fcall	_rtc_readTime
  1756     027A                     l3540:
  1757                           
  1758                           ;main.c: 66:         rtc_readTime(0x02);
  1759     027A  3002               	movlw	2
  1760     027B  160A  118A  240B  120A  118A  	fcall	_rtc_readTime
  1761     0280                     l3542:
  1762                           
  1763                           ;main.c: 68:         hour_1 = rtc_convUpperNibble(hour);
  1764     0280  1683               	bsf	3,5	;RP0=1, select bank1
  1765     0281  1303               	bcf	3,6	;RP1=0, select bank1
  1766     0282  0860               	movf	_hour^(0+128),w
  1767     0283  160A  118A  21AF  120A  118A  	fcall	_rtc_convUpperNibble
  1768     0288  1683               	bsf	3,5	;RP0=1, select bank1
  1769     0289  1303               	bcf	3,6	;RP1=0, select bank1
  1770     028A  00C7               	movwf	main@hour_1^(0+128)
  1771     028B                     l3544:
  1772                           
  1773                           ;main.c: 69:         hour_0 = rtc_convLowerNibble(hour);
  1774     028B  0860               	movf	_hour^(0+128),w
  1775     028C  160A  118A  213D  120A  118A  	fcall	_rtc_convLowerNibble
  1776     0291  1683               	bsf	3,5	;RP0=1, select bank1
  1777     0292  1303               	bcf	3,6	;RP1=0, select bank1
  1778     0293  00C6               	movwf	main@hour_0^(0+128)
  1779     0294                     l3546:
  1780                           
  1781                           ;main.c: 70:         min_1 = rtc_convUpperNibble(min);
  1782     0294  0862               	movf	_min^(0+128),w
  1783     0295  160A  118A  21AF  120A  118A  	fcall	_rtc_convUpperNibble
  1784     029A  1683               	bsf	3,5	;RP0=1, select bank1
  1785     029B  1303               	bcf	3,6	;RP1=0, select bank1
  1786     029C  00C5               	movwf	main@min_1^(0+128)
  1787     029D                     l3548:
  1788                           
  1789                           ;main.c: 71:         min_0 = rtc_convLowerNibble(min);
  1790     029D  0862               	movf	_min^(0+128),w
  1791     029E  160A  118A  213D  120A  118A  	fcall	_rtc_convLowerNibble
  1792     02A3  1683               	bsf	3,5	;RP0=1, select bank1
  1793     02A4  1303               	bcf	3,6	;RP1=0, select bank1
  1794     02A5  00C4               	movwf	main@min_0^(0+128)
  1795     02A6                     l3550:
  1796                           
  1797                           ;main.c: 73:         if(PORTBbits.RB5 == 0){
  1798     02A6  1283               	bcf	3,5	;RP0=0, select bank0
  1799     02A7  1303               	bcf	3,6	;RP1=0, select bank0
  1800     02A8  1A86               	btfsc	6,5	;volatile
  1801     02A9  2AAB               	goto	u4491
  1802     02AA  2AAC               	goto	u4490
  1803     02AB                     u4491:
  1804     02AB  2AC3               	goto	l3562
  1805     02AC                     u4490:
  1806     02AC                     l197:
  1807     02AC  1E86               	btfss	6,5	;volatile
  1808     02AD  2AAF               	goto	u4501
  1809     02AE  2AB0               	goto	u4500
  1810     02AF                     u4501:
  1811     02AF  2AAC               	goto	l197
  1812     02B0                     u4500:
  1813     02B0                     l3554:
  1814                           
  1815                           ;main.c: 75:             lcd_clear();
  1816     02B0  160A  118A  21A3  120A  118A  	fcall	_lcd_clear
  1817     02B5                     l3556:
  1818                           
  1819                           ;main.c: 76:             if (device_mode == 4) device_mode = 0;
  1820     02B5  3004               	movlw	4
  1821     02B6  1683               	bsf	3,5	;RP0=1, select bank1
  1822     02B7  1303               	bcf	3,6	;RP1=0, select bank1
  1823     02B8  064C               	xorwf	main@device_mode^(0+128),w
  1824     02B9  1D03               	btfss	3,2
  1825     02BA  2ABC               	goto	u4511
  1826     02BB  2ABD               	goto	u4510
  1827     02BC                     u4511:
  1828     02BC  2ABF               	goto	l3560
  1829     02BD                     u4510:
  1830     02BD                     l3558:
  1831     02BD  01CC               	clrf	main@device_mode^(0+128)
  1832     02BE  2AC3               	goto	l3562
  1833     02BF                     l3560:
  1834     02BF  3001               	movlw	1
  1835     02C0  00FF               	movwf	btemp+1
  1836     02C1  087F               	movf	btemp+1,w
  1837     02C2  07CC               	addwf	main@device_mode^(0+128),f
  1838     02C3                     l3562:
  1839                           
  1840                           ;main.c: 81:         if (device_mode == 0){
  1841     02C3  1683               	bsf	3,5	;RP0=1, select bank1
  1842     02C4  1303               	bcf	3,6	;RP1=0, select bank1
  1843     02C5  084C               	movf	main@device_mode^(0+128),w
  1844     02C6  1D03               	btfss	3,2
  1845     02C7  2AC9               	goto	u4521
  1846     02C8  2ACA               	goto	u4520
  1847     02C9                     u4521:
  1848     02C9  2C30               	goto	l3630
  1849     02CA                     u4520:
  1850     02CA                     l3564:
  1851                           
  1852                           ;main.c: 82:             rtc_readTime(0x00);
  1853     02CA  3000               	movlw	0
  1854     02CB  160A  118A  240B  120A  118A  	fcall	_rtc_readTime
  1855                           
  1856                           ;main.c: 83:             rtc_readDate(0x03);
  1857     02D0  3003               	movlw	3
  1858     02D1  160A  118A  254C  120A  118A  	fcall	_rtc_readDate
  1859                           
  1860                           ;main.c: 84:             rtc_readDate(0x04);
  1861     02D6  3004               	movlw	4
  1862     02D7  160A  118A  254C  120A  118A  	fcall	_rtc_readDate
  1863                           
  1864                           ;main.c: 85:             rtc_readDate(0x05);
  1865     02DC  3005               	movlw	5
  1866     02DD  160A  118A  254C  120A  118A  	fcall	_rtc_readDate
  1867                           
  1868                           ;main.c: 86:             rtc_readDate(0x06);
  1869     02E2  3006               	movlw	6
  1870     02E3  160A  118A  254C  120A  118A  	fcall	_rtc_readDate
  1871     02E8                     l3566:
  1872                           
  1873                           ;main.c: 88:             sec_1 = rtc_convUpperNibble(sec);
  1874     02E8  1683               	bsf	3,5	;RP0=1, select bank1
  1875     02E9  1303               	bcf	3,6	;RP1=0, select bank1
  1876     02EA  0864               	movf	_sec^(0+128),w
  1877     02EB  160A  118A  21AF  120A  118A  	fcall	_rtc_convUpperNibble
  1878     02F0  1683               	bsf	3,5	;RP0=1, select bank1
  1879     02F1  1303               	bcf	3,6	;RP1=0, select bank1
  1880     02F2  00B7               	movwf	main@sec_1^(0+128)
  1881     02F3                     l3568:
  1882                           
  1883                           ;main.c: 89:             sec_0 = rtc_convLowerNibble(sec);
  1884     02F3  0864               	movf	_sec^(0+128),w
  1885     02F4  160A  118A  213D  120A  118A  	fcall	_rtc_convLowerNibble
  1886     02F9  1683               	bsf	3,5	;RP0=1, select bank1
  1887     02FA  1303               	bcf	3,6	;RP1=0, select bank1
  1888     02FB  00B6               	movwf	main@sec_0^(0+128)
  1889     02FC                     l3570:
  1890                           
  1891                           ;main.c: 91:             lcd_setCursor(1,1);
  1892     02FC  01F6               	clrf	lcd_setCursor@col
  1893     02FD  0AF6               	incf	lcd_setCursor@col,f
  1894     02FE  3001               	movlw	1
  1895     02FF  160A  118A  223F  120A  118A  	fcall	_lcd_setCursor
  1896     0304                     l3572:
  1897                           
  1898                           ;main.c: 92:             lcd_writeString("Time: ");
  1899     0304  305B               	movlw	(low ((STR_2-__stringbase)| (0+32768)))& (0+255)
  1900     0305  160A  118A  2301  120A  118A  	fcall	_lcd_writeString
  1901     030A                     l3574:
  1902                           
  1903                           ;main.c: 93:             lcd_writeChar(hour_1);
  1904     030A  1683               	bsf	3,5	;RP0=1, select bank1
  1905     030B  1303               	bcf	3,6	;RP1=0, select bank1
  1906     030C  0847               	movf	main@hour_1^(0+128),w
  1907     030D  160A  118A  2278  120A  118A  	fcall	_lcd_writeChar
  1908     0312                     l3576:
  1909                           
  1910                           ;main.c: 94:             lcd_writeChar(hour_0);
  1911     0312  1683               	bsf	3,5	;RP0=1, select bank1
  1912     0313  1303               	bcf	3,6	;RP1=0, select bank1
  1913     0314  0846               	movf	main@hour_0^(0+128),w
  1914     0315  160A  118A  2278  120A  118A  	fcall	_lcd_writeChar
  1915     031A                     l3578:
  1916                           
  1917                           ;main.c: 95:             lcd_writeChar(':');
  1918     031A  303A               	movlw	58
  1919     031B  160A  118A  2278  120A  118A  	fcall	_lcd_writeChar
  1920     0320                     l3580:
  1921                           
  1922                           ;main.c: 96:             lcd_writeChar(min_1);
  1923     0320  1683               	bsf	3,5	;RP0=1, select bank1
  1924     0321  1303               	bcf	3,6	;RP1=0, select bank1
  1925     0322  0845               	movf	main@min_1^(0+128),w
  1926     0323  160A  118A  2278  120A  118A  	fcall	_lcd_writeChar
  1927     0328                     l3582:
  1928                           
  1929                           ;main.c: 97:             lcd_writeChar(min_0);
  1930     0328  1683               	bsf	3,5	;RP0=1, select bank1
  1931     0329  1303               	bcf	3,6	;RP1=0, select bank1
  1932     032A  0844               	movf	main@min_0^(0+128),w
  1933     032B  160A  118A  2278  120A  118A  	fcall	_lcd_writeChar
  1934     0330                     l3584:
  1935                           
  1936                           ;main.c: 98:             lcd_writeChar(':');
  1937     0330  303A               	movlw	58
  1938     0331  160A  118A  2278  120A  118A  	fcall	_lcd_writeChar
  1939     0336                     l3586:
  1940                           
  1941                           ;main.c: 99:             lcd_writeChar(sec_1);
  1942     0336  1683               	bsf	3,5	;RP0=1, select bank1
  1943     0337  1303               	bcf	3,6	;RP1=0, select bank1
  1944     0338  0837               	movf	main@sec_1^(0+128),w
  1945     0339  160A  118A  2278  120A  118A  	fcall	_lcd_writeChar
  1946     033E                     l3588:
  1947                           
  1948                           ;main.c: 100:             lcd_writeChar(sec_0);
  1949     033E  1683               	bsf	3,5	;RP0=1, select bank1
  1950     033F  1303               	bcf	3,6	;RP1=0, select bank1
  1951     0340  0836               	movf	main@sec_0^(0+128),w
  1952     0341  160A  118A  2278  120A  118A  	fcall	_lcd_writeChar
  1953                           
  1954                           ;main.c: 102:             day_1 = rtc_convUpperNibble(date);
  1955     0346  1683               	bsf	3,5	;RP0=1, select bank1
  1956     0347  1303               	bcf	3,6	;RP1=0, select bank1
  1957     0348  085C               	movf	_date^(0+128),w
  1958     0349  160A  118A  21AF  120A  118A  	fcall	_rtc_convUpperNibble
  1959     034E  1683               	bsf	3,5	;RP0=1, select bank1
  1960     034F  1303               	bcf	3,6	;RP1=0, select bank1
  1961     0350  00B8               	movwf	main@day_1^(0+128)
  1962                           
  1963                           ;main.c: 103:             day_0 = rtc_convLowerNibble(date);
  1964     0351  085C               	movf	_date^(0+128),w
  1965     0352  160A  118A  213D  120A  118A  	fcall	_rtc_convLowerNibble
  1966     0357  1683               	bsf	3,5	;RP0=1, select bank1
  1967     0358  1303               	bcf	3,6	;RP1=0, select bank1
  1968     0359  00B9               	movwf	main@day_0^(0+128)
  1969                           
  1970                           ;main.c: 104:             month_1 = rtc_convUpperNibble(month);
  1971     035A  085A               	movf	_month^(0+128),w
  1972     035B  160A  118A  21AF  120A  118A  	fcall	_rtc_convUpperNibble
  1973     0360  1683               	bsf	3,5	;RP0=1, select bank1
  1974     0361  1303               	bcf	3,6	;RP1=0, select bank1
  1975     0362  00BA               	movwf	main@month_1^(0+128)
  1976                           
  1977                           ;main.c: 105:             month_0 = rtc_convLowerNibble(month);
  1978     0363  085A               	movf	_month^(0+128),w
  1979     0364  160A  118A  213D  120A  118A  	fcall	_rtc_convLowerNibble
  1980     0369  1683               	bsf	3,5	;RP0=1, select bank1
  1981     036A  1303               	bcf	3,6	;RP1=0, select bank1
  1982     036B  00BB               	movwf	main@month_0^(0+128)
  1983                           
  1984                           ;main.c: 106:             year_1 = rtc_convUpperNibble(year);
  1985     036C  0858               	movf	_year^(0+128),w
  1986     036D  160A  118A  21AF  120A  118A  	fcall	_rtc_convUpperNibble
  1987     0372  1683               	bsf	3,5	;RP0=1, select bank1
  1988     0373  1303               	bcf	3,6	;RP1=0, select bank1
  1989     0374  00BC               	movwf	main@year_1^(0+128)
  1990                           
  1991                           ;main.c: 107:             year_0 = rtc_convLowerNibble(year);
  1992     0375  0858               	movf	_year^(0+128),w
  1993     0376  160A  118A  213D  120A  118A  	fcall	_rtc_convLowerNibble
  1994     037B  1683               	bsf	3,5	;RP0=1, select bank1
  1995     037C  1303               	bcf	3,6	;RP1=0, select bank1
  1996     037D  00BD               	movwf	main@year_0^(0+128)
  1997     037E                     l3590:
  1998                           
  1999                           ;main.c: 109:             lcd_setCursor(2,1);
  2000     037E  01F6               	clrf	lcd_setCursor@col
  2001     037F  0AF6               	incf	lcd_setCursor@col,f
  2002     0380  3002               	movlw	2
  2003     0381  160A  118A  223F  120A  118A  	fcall	_lcd_setCursor
  2004     0386                     l3592:
  2005                           
  2006                           ;main.c: 110:             lcd_writeString("Date:");
  2007     0386  3062               	movlw	(low ((STR_3-__stringbase)| (0+32768)))& (0+255)
  2008     0387  160A  118A  2301  120A  118A  	fcall	_lcd_writeString
  2009     038C                     l3594:
  2010                           
  2011                           ;main.c: 111:             lcd_writeChar(day_1);
  2012     038C  1683               	bsf	3,5	;RP0=1, select bank1
  2013     038D  1303               	bcf	3,6	;RP1=0, select bank1
  2014     038E  0838               	movf	main@day_1^(0+128),w
  2015     038F  160A  118A  2278  120A  118A  	fcall	_lcd_writeChar
  2016     0394                     l3596:
  2017                           
  2018                           ;main.c: 112:             lcd_writeChar(day_0);
  2019     0394  1683               	bsf	3,5	;RP0=1, select bank1
  2020     0395  1303               	bcf	3,6	;RP1=0, select bank1
  2021     0396  0839               	movf	main@day_0^(0+128),w
  2022     0397  160A  118A  2278  120A  118A  	fcall	_lcd_writeChar
  2023     039C                     l3598:
  2024                           
  2025                           ;main.c: 113:             lcd_writeChar('/');
  2026     039C  302F               	movlw	47
  2027     039D  160A  118A  2278  120A  118A  	fcall	_lcd_writeChar
  2028     03A2                     l3600:
  2029                           
  2030                           ;main.c: 114:             lcd_writeChar(month_1);
  2031     03A2  1683               	bsf	3,5	;RP0=1, select bank1
  2032     03A3  1303               	bcf	3,6	;RP1=0, select bank1
  2033     03A4  083A               	movf	main@month_1^(0+128),w
  2034     03A5  160A  118A  2278  120A  118A  	fcall	_lcd_writeChar
  2035     03AA                     l3602:
  2036                           
  2037                           ;main.c: 115:             lcd_writeChar(month_0);
  2038     03AA  1683               	bsf	3,5	;RP0=1, select bank1
  2039     03AB  1303               	bcf	3,6	;RP1=0, select bank1
  2040     03AC  083B               	movf	main@month_0^(0+128),w
  2041     03AD  160A  118A  2278  120A  118A  	fcall	_lcd_writeChar
  2042     03B2                     l3604:
  2043                           
  2044                           ;main.c: 116:             lcd_writeChar('/');
  2045     03B2  302F               	movlw	47
  2046     03B3  160A  118A  2278  120A  118A  	fcall	_lcd_writeChar
  2047     03B8                     l3606:
  2048                           
  2049                           ;main.c: 117:             lcd_writeChar(year_1);
  2050     03B8  1683               	bsf	3,5	;RP0=1, select bank1
  2051     03B9  1303               	bcf	3,6	;RP1=0, select bank1
  2052     03BA  083C               	movf	main@year_1^(0+128),w
  2053     03BB  160A  118A  2278  120A  118A  	fcall	_lcd_writeChar
  2054     03C0                     l3608:
  2055                           
  2056                           ;main.c: 118:             lcd_writeChar(year_0);
  2057     03C0  1683               	bsf	3,5	;RP0=1, select bank1
  2058     03C1  1303               	bcf	3,6	;RP1=0, select bank1
  2059     03C2  083D               	movf	main@year_0^(0+128),w
  2060     03C3  160A  118A  2278  120A  118A  	fcall	_lcd_writeChar
  2061                           
  2062                           ;main.c: 120:             switch(week_days[--day]){
  2063     03C8  2C01               	goto	l3628
  2064     03C9                     l3610:
  2065                           
  2066                           ;main.c: 122:                     lcd_writeString("Sun");
  2067     03C9  3087               	movlw	(low ((STR_4-__stringbase)| (0+32768)))& (0+255)
  2068     03CA  160A  118A  2301  120A  118A  	fcall	_lcd_writeString
  2069                           
  2070                           ;main.c: 123:                     break;
  2071     03CF  2A6E               	goto	l3536
  2072     03D0                     l3612:
  2073                           
  2074                           ;main.c: 125:                     lcd_writeString("Mon");
  2075     03D0  3083               	movlw	(low ((STR_5-__stringbase)| (0+32768)))& (0+255)
  2076     03D1  160A  118A  2301  120A  118A  	fcall	_lcd_writeString
  2077                           
  2078                           ;main.c: 126:                     break;
  2079     03D6  2A6E               	goto	l3536
  2080     03D7                     l3614:
  2081                           
  2082                           ;main.c: 128:                     lcd_writeString("Tue");
  2083     03D7  307B               	movlw	(low ((STR_6-__stringbase)| (0+32768)))& (0+255)
  2084     03D8  160A  118A  2301  120A  118A  	fcall	_lcd_writeString
  2085                           
  2086                           ;main.c: 129:                     break;
  2087     03DD  2A6E               	goto	l3536
  2088     03DE                     l3616:
  2089                           
  2090                           ;main.c: 131:                     lcd_writeString("Wed");
  2091     03DE  3077               	movlw	(low ((STR_7-__stringbase)| (0+32768)))& (0+255)
  2092     03DF  160A  118A  2301  120A  118A  	fcall	_lcd_writeString
  2093                           
  2094                           ;main.c: 132:                     break;
  2095     03E4  2A6E               	goto	l3536
  2096     03E5                     l3618:
  2097                           
  2098                           ;main.c: 134:                     lcd_writeString("Thu");
  2099     03E5  308F               	movlw	(low ((STR_8-__stringbase)| (0+32768)))& (0+255)
  2100     03E6  160A  118A  2301  120A  118A  	fcall	_lcd_writeString
  2101                           
  2102                           ;main.c: 135:                     break;
  2103     03EB  2A6E               	goto	l3536
  2104     03EC                     l3620:
  2105                           
  2106                           ;main.c: 137:                     lcd_writeString("Fri");
  2107     03EC  307F               	movlw	(low ((STR_9-__stringbase)| (0+32768)))& (0+255)
  2108     03ED  160A  118A  2301  120A  118A  	fcall	_lcd_writeString
  2109                           
  2110                           ;main.c: 138:                     break;
  2111     03F2  2A6E               	goto	l3536
  2112     03F3                     l3622:
  2113                           
  2114                           ;main.c: 140:                     lcd_writeString("Sat");
  2115     03F3  308B               	movlw	(low ((STR_10-__stringbase)| (0+32768)))& (0+255)
  2116     03F4  160A  118A  2301  120A  118A  	fcall	_lcd_writeString
  2117                           
  2118                           ;main.c: 141:                     break;
  2119     03F9  2A6E               	goto	l3536
  2120     03FA                     l3624:
  2121                           
  2122                           ;main.c: 143:                     lcd_writeString("ERR");
  2123     03FA  3073               	movlw	(low ((STR_11-__stringbase)| (0+32768)))& (0+255)
  2124     03FB  160A  118A  2301  120A  118A  	fcall	_lcd_writeString
  2125                           
  2126                           ;main.c: 144:                     break;
  2127     0400  2A6E               	goto	l3536
  2128     0401                     l3628:
  2129     0401  30FF               	movlw	255
  2130     0402  1683               	bsf	3,5	;RP0=1, select bank1
  2131     0403  1303               	bcf	3,6	;RP1=0, select bank1
  2132     0404  07DE               	addwf	_day^(0+128),f
  2133     0405  1803               	skipnc
  2134     0406  0ADF               	incf	(_day+1)^(0+128),f
  2135     0407  30FF               	movlw	255
  2136     0408  07DF               	addwf	(_day+1)^(0+128),f
  2137     0409  085E               	movf	_day^(0+128),w
  2138     040A  00A0               	movwf	??_main^(0+128)
  2139     040B  0720               	addwf	??_main^(0+128),w
  2140     040C  3EA4               	addlw	(low (main@week_days| 0))& (0+255)
  2141     040D  0084               	movwf	4
  2142     040E  1383               	bcf	3,7	;select IRP bank1
  2143     040F  0800               	movf	0,w
  2144     0410  00A1               	movwf	(??_main+1)^(0+128)
  2145     0411  0A84               	incf	4,f
  2146     0412  0800               	movf	0,w
  2147     0413  00A2               	movwf	((??_main+1)^(0+128)+1)
  2148                           
  2149                           ; Switch on 2 bytes has been partitioned into a top level switch of size 1, and 1 sub-sw
      +                          itches
  2150                           ; Switch size 1, requested type "simple"
  2151                           ; Number of cases is 1, Range of values is 0 to 0
  2152                           ; switch strategies available:
  2153                           ; Name         Instructions Cycles
  2154                           ; simple_byte            4     3 (average)
  2155                           ; direct_byte           11     8 (fixed)
  2156                           ; jumptable            260     6 (fixed)
  2157                           ;	Chosen strategy is simple_byte
  2158     0414  0822               	movf	(??_main+2)^(0+128),w
  2159     0415  3A00               	xorlw	0	; case 0
  2160     0416  1903               	skipnz
  2161     0417  2C19               	goto	l3954
  2162     0418  2BFA               	goto	l3624
  2163     0419                     l3954:
  2164                           
  2165                           ; Switch size 1, requested type "simple"
  2166                           ; Number of cases is 7, Range of values is 70 to 116
  2167                           ; switch strategies available:
  2168                           ; Name         Instructions Cycles
  2169                           ; simple_byte           22    12 (average)
  2170                           ; direct_byte          152    11 (fixed)
  2171                           ; jumptable            263     9 (fixed)
  2172                           ;	Chosen strategy is simple_byte
  2173     0419  0821               	movf	(??_main+1)^(0+128),w
  2174     041A  3A46               	xorlw	70	; case 70
  2175     041B  1903               	skipnz
  2176     041C  2BEC               	goto	l3620
  2177     041D  3A0B               	xorlw	11	; case 77
  2178     041E  1903               	skipnz
  2179     041F  2BD0               	goto	l3612
  2180     0420  3A1E               	xorlw	30	; case 83
  2181     0421  1903               	skipnz
  2182     0422  2BC9               	goto	l3610
  2183     0423  3A07               	xorlw	7	; case 84
  2184     0424  1903               	skipnz
  2185     0425  2BD7               	goto	l3614
  2186     0426  3A03               	xorlw	3	; case 87
  2187     0427  1903               	skipnz
  2188     0428  2BDE               	goto	l3616
  2189     0429  3A24               	xorlw	36	; case 115
  2190     042A  1903               	skipnz
  2191     042B  2BF3               	goto	l3622
  2192     042C  3A07               	xorlw	7	; case 116
  2193     042D  1903               	skipnz
  2194     042E  2BE5               	goto	l3618
  2195     042F  2BFA               	goto	l3624
  2196     0430                     l3630:
  2197     0430  034C               	decf	main@device_mode^(0+128),w
  2198     0431  1D03               	btfss	3,2
  2199     0432  2C34               	goto	u4531
  2200     0433  2C35               	goto	u4530
  2201     0434                     u4531:
  2202     0434  2E4B               	goto	l3794
  2203     0435                     u4530:
  2204     0435                     l3632:
  2205                           
  2206                           ;main.c: 150:             char trigger;;main.c: 152:             lcd_setCursor(1,1);
  2207     0435  01F6               	clrf	lcd_setCursor@col
  2208     0436  0AF6               	incf	lcd_setCursor@col,f
  2209     0437  3001               	movlw	1
  2210     0438  160A  118A  223F  120A  118A  	fcall	_lcd_setCursor
  2211     043D                     l3634:
  2212                           
  2213                           ;main.c: 153:             lcd_writeString("ALARM MODE");
  2214     043D  301E               	movlw	(low ((STR_12-__stringbase)| (0+32768)))& (0+255)
  2215     043E  160A  118A  2301  120A  118A  	fcall	_lcd_writeString
  2216     0443                     l3636:
  2217                           
  2218                           ;main.c: 155:             lcd_setCursor(2,1);
  2219     0443  01F6               	clrf	lcd_setCursor@col
  2220     0444  0AF6               	incf	lcd_setCursor@col,f
  2221     0445  3002               	movlw	2
  2222     0446  160A  118A  223F  120A  118A  	fcall	_lcd_setCursor
  2223                           
  2224                           ;main.c: 156:             lcd_writeString("Alarm: ");
  2225     044B  303B               	movlw	(low ((STR_13-__stringbase)| (0+32768)))& (0+255)
  2226     044C  160A  118A  2301  120A  118A  	fcall	_lcd_writeString
  2227     0451                     l3638:
  2228                           
  2229                           ;main.c: 157:             lcd_writeChar(alarm_digit[0]);
  2230     0451  1683               	bsf	3,5	;RP0=1, select bank1
  2231     0452  1303               	bcf	3,6	;RP1=0, select bank1
  2232     0453  084D               	movf	main@alarm_digit^(0+128),w
  2233     0454  160A  118A  2278  120A  118A  	fcall	_lcd_writeChar
  2234     0459                     l3640:
  2235                           
  2236                           ;main.c: 158:             lcd_writeChar(alarm_digit[1]);
  2237     0459  1683               	bsf	3,5	;RP0=1, select bank1
  2238     045A  1303               	bcf	3,6	;RP1=0, select bank1
  2239     045B  084E               	movf	(main@alarm_digit^(0+128)+1),w
  2240     045C  160A  118A  2278  120A  118A  	fcall	_lcd_writeChar
  2241     0461                     l3642:
  2242                           
  2243                           ;main.c: 159:             lcd_writeChar(':');
  2244     0461  303A               	movlw	58
  2245     0462  160A  118A  2278  120A  118A  	fcall	_lcd_writeChar
  2246     0467                     l3644:
  2247                           
  2248                           ;main.c: 160:             lcd_writeChar(alarm_digit[2]);
  2249     0467  1683               	bsf	3,5	;RP0=1, select bank1
  2250     0468  1303               	bcf	3,6	;RP1=0, select bank1
  2251     0469  084F               	movf	(main@alarm_digit^(0+128)+2),w
  2252     046A  160A  118A  2278  120A  118A  	fcall	_lcd_writeChar
  2253     046F                     l3646:
  2254                           
  2255                           ;main.c: 161:             lcd_writeChar(alarm_digit[3]);
  2256     046F  1683               	bsf	3,5	;RP0=1, select bank1
  2257     0470  1303               	bcf	3,6	;RP1=0, select bank1
  2258     0471  0850               	movf	(main@alarm_digit^(0+128)+3),w
  2259     0472  160A  118A  2278  120A  118A  	fcall	_lcd_writeChar
  2260     0477                     l3648:
  2261                           
  2262                           ;main.c: 162:             lcd_setCursor(2,8);
  2263     0477  3008               	movlw	8
  2264     0478  00F6               	movwf	lcd_setCursor@col
  2265     0479  3002               	movlw	2
  2266     047A  160A  118A  223F  120A  118A  	fcall	_lcd_setCursor
  2267     047F                     l3650:
  2268                           
  2269                           ;main.c: 164:             if (PORTBbits.RB1 == 0){
  2270     047F  1283               	bcf	3,5	;RP0=0, select bank0
  2271     0480  1303               	bcf	3,6	;RP1=0, select bank0
  2272     0481  1886               	btfsc	6,1	;volatile
  2273     0482  2C84               	goto	u4541
  2274     0483  2C85               	goto	u4540
  2275     0484                     u4541:
  2276     0484  2CCA               	goto	l3672
  2277     0485                     u4540:
  2278     0485                     l3652:
  2279                           
  2280                           ;main.c: 165:                 if(alarm_status == 0){
  2281     0485  1683               	bsf	3,5	;RP0=1, select bank1
  2282     0486  1303               	bcf	3,6	;RP1=0, select bank1
  2283     0487  0868               	movf	_alarm_status^(0+128),w
  2284     0488  1D03               	btfss	3,2
  2285     0489  2C8B               	goto	u4551
  2286     048A  2C8C               	goto	u4550
  2287     048B                     u4551:
  2288     048B  2CAE               	goto	l221
  2289     048C                     u4550:
  2290     048C                     l217:
  2291     048C  1283               	bcf	3,5	;RP0=0, select bank0
  2292     048D  1C86               	btfss	6,1	;volatile
  2293     048E  2C90               	goto	u4561
  2294     048F  2C91               	goto	u4560
  2295     0490                     u4561:
  2296     0490  2C8C               	goto	l217
  2297     0491                     u4560:
  2298     0491                     l219:
  2299                           
  2300                           ;main.c: 167:                     alarm_status = 1;
  2301     0491  1683               	bsf	3,5	;RP0=1, select bank1
  2302     0492  1303               	bcf	3,6	;RP1=0, select bank1
  2303     0493  01E8               	clrf	_alarm_status^(0+128)
  2304     0494  0AE8               	incf	_alarm_status^(0+128),f
  2305     0495                     l3656:
  2306                           
  2307                           ;main.c: 168:                     time_aux = 1;
  2308     0495  3001               	movlw	1
  2309     0496  00BE               	movwf	main@time_aux^(0+128)
  2310     0497  3000               	movlw	0
  2311     0498  00BF               	movwf	(main@time_aux^(0+128)+1)
  2312     0499                     l3658:
  2313                           
  2314                           ;main.c: 169:                     lcd_setCursor(1,1);
  2315     0499  01F6               	clrf	lcd_setCursor@col
  2316     049A  0AF6               	incf	lcd_setCursor@col,f
  2317     049B  3001               	movlw	1
  2318     049C  160A  118A  223F  120A  118A  	fcall	_lcd_setCursor
  2319     04A1                     l3660:
  2320                           
  2321                           ;main.c: 170:                     lcd_writeString("ALARM MODE");
  2322     04A1  301E               	movlw	(low ((STR_12-__stringbase)| (0+32768)))& (0+255)
  2323     04A2  160A  118A  2301  120A  118A  	fcall	_lcd_writeString
  2324     04A7                     l3662:
  2325                           
  2326                           ;main.c: 171:                     lcd_writeString("  ON");
  2327     04A7  3056               	movlw	(low (((STR_27+3)-__stringbase)| (0+32768)))& (0+255)
  2328     04A8  160A  118A  2301  120A  118A  	fcall	_lcd_writeString
  2329                           
  2330                           ;main.c: 172:                 }
  2331     04AD  2CCA               	goto	l3672
  2332     04AE                     l221:
  2333     04AE  1283               	bcf	3,5	;RP0=0, select bank0
  2334     04AF  1C86               	btfss	6,1	;volatile
  2335     04B0  2CB2               	goto	u4571
  2336     04B1  2CB3               	goto	u4570
  2337     04B2                     u4571:
  2338     04B2  2CAE               	goto	l221
  2339     04B3                     u4570:
  2340     04B3                     l3664:
  2341                           
  2342                           ;main.c: 175:                     alarm_status = 0;
  2343     04B3  1683               	bsf	3,5	;RP0=1, select bank1
  2344     04B4  1303               	bcf	3,6	;RP1=0, select bank1
  2345     04B5  01E8               	clrf	_alarm_status^(0+128)
  2346     04B6                     l3666:
  2347                           
  2348                           ;main.c: 176:                     lcd_setCursor(1,1);
  2349     04B6  01F6               	clrf	lcd_setCursor@col
  2350     04B7  0AF6               	incf	lcd_setCursor@col,f
  2351     04B8  3001               	movlw	1
  2352     04B9  160A  118A  223F  120A  118A  	fcall	_lcd_setCursor
  2353     04BE                     l3668:
  2354                           
  2355                           ;main.c: 177:                     lcd_writeString("ALARM MODE");
  2356     04BE  301E               	movlw	(low ((STR_12-__stringbase)| (0+32768)))& (0+255)
  2357     04BF  160A  118A  2301  120A  118A  	fcall	_lcd_writeString
  2358     04C4                     l3670:
  2359                           
  2360                           ;main.c: 178:                     lcd_writeString(" OFF");
  2361     04C4  3046               	movlw	(low (((STR_26+3)-__stringbase)| (0+32768)))& (0+255)
  2362     04C5  160A  118A  2301  120A  118A  	fcall	_lcd_writeString
  2363     04CA                     l3672:
  2364                           
  2365                           ;main.c: 181:             if(PORTBbits.RB0 == 0 && ok==1 && alarm_status==0){
  2366     04CA  1283               	bcf	3,5	;RP0=0, select bank0
  2367     04CB  1303               	bcf	3,6	;RP1=0, select bank0
  2368     04CC  1806               	btfsc	6,0	;volatile
  2369     04CD  2CCF               	goto	u4581
  2370     04CE  2CD0               	goto	u4580
  2371     04CF                     u4581:
  2372     04CF  2CF4               	goto	l224
  2373     04D0                     u4580:
  2374     04D0                     l3674:
  2375     04D0                     l3676:
  2376     04D0  1683               	bsf	3,5	;RP0=1, select bank1
  2377     04D1  1303               	bcf	3,6	;RP1=0, select bank1
  2378     04D2  0868               	movf	_alarm_status^(0+128),w
  2379     04D3  1D03               	btfss	3,2
  2380     04D4  2CD6               	goto	u4591
  2381     04D5  2CD7               	goto	u4590
  2382     04D6                     u4591:
  2383     04D6  2CF4               	goto	l224
  2384     04D7                     u4590:
  2385     04D7                     l3678:
  2386                           
  2387                           ;main.c: 182:                 pos--;
  2388     04D7  3001               	movlw	1
  2389     04D8  02D3               	subwf	main@pos^(0+128),f
  2390     04D9                     l3680:
  2391                           
  2392                           ;main.c: 183:                 if(pos < 8)
  2393     04D9  3008               	movlw	8
  2394     04DA  0253               	subwf	main@pos^(0+128),w
  2395     04DB  1803               	skipnc
  2396     04DC  2CDE               	goto	u4601
  2397     04DD  2CDF               	goto	u4600
  2398     04DE                     u4601:
  2399     04DE  2CEC               	goto	l3686
  2400     04DF                     u4600:
  2401     04DF                     l3682:
  2402                           
  2403                           ;main.c: 184:                     pos = 11;
  2404     04DF  300B               	movlw	11
  2405     04E0  00D3               	movwf	main@pos^(0+128)
  2406     04E1  2CEC               	goto	l3686
  2407     04E2                     l227:
  2408                           
  2409                           ;main.c: 186:                     if(PORTBbits.RB0 == 1)
  2410     04E2  1283               	bcf	3,5	;RP0=0, select bank0
  2411     04E3  1303               	bcf	3,6	;RP1=0, select bank0
  2412     04E4  1C06               	btfss	6,0	;volatile
  2413     04E5  2CE7               	goto	u4611
  2414     04E6  2CE8               	goto	u4610
  2415     04E7                     u4611:
  2416     04E7  2CEC               	goto	l3686
  2417     04E8                     u4610:
  2418     04E8                     l3684:
  2419                           
  2420                           ;main.c: 187:                         ok = 0;
  2421     04E8  1683               	bsf	3,5	;RP0=1, select bank1
  2422     04E9  1303               	bcf	3,6	;RP1=0, select bank1
  2423     04EA  01D1               	clrf	main@ok^(0+128)
  2424     04EB  01D2               	clrf	(main@ok+1)^(0+128)
  2425     04EC                     l3686:
  2426                           
  2427                           ;main.c: 185:                 while(ok == 1){
  2428     04EC  1683               	bsf	3,5	;RP0=1, select bank1
  2429     04ED  1303               	bcf	3,6	;RP1=0, select bank1
  2430     04EE  0351               	decf	main@ok^(0+128),w
  2431     04EF  0452               	iorwf	(main@ok+1)^(0+128),w
  2432     04F0  1903               	btfsc	3,2
  2433     04F1  2CF3               	goto	u4621
  2434     04F2  2CF4               	goto	u4620
  2435     04F3                     u4621:
  2436     04F3  2CE2               	goto	l227
  2437     04F4                     u4620:
  2438     04F4                     l224:	
  2439                           ;main.c: 189:             }
  2440                           
  2441                           
  2442                           ;main.c: 190:             if(PORTBbits.RB2 == 0 && ok==1 && alarm_status==0){
  2443     04F4  1283               	bcf	3,5	;RP0=0, select bank0
  2444     04F5  1906               	btfsc	6,2	;volatile
  2445     04F6  2CF8               	goto	u4631
  2446     04F7  2CF9               	goto	u4630
  2447     04F8                     u4631:
  2448     04F8  2D25               	goto	l230
  2449     04F9                     u4630:
  2450     04F9                     l3688:
  2451     04F9  1683               	bsf	3,5	;RP0=1, select bank1
  2452     04FA  1303               	bcf	3,6	;RP1=0, select bank1
  2453     04FB  0351               	decf	main@ok^(0+128),w
  2454     04FC  0452               	iorwf	(main@ok+1)^(0+128),w
  2455     04FD  1D03               	btfss	3,2
  2456     04FE  2D00               	goto	u4641
  2457     04FF  2D01               	goto	u4640
  2458     0500                     u4641:
  2459     0500  2D25               	goto	l230
  2460     0501                     u4640:
  2461     0501                     l3690:
  2462     0501  0868               	movf	_alarm_status^(0+128),w
  2463     0502  1D03               	btfss	3,2
  2464     0503  2D05               	goto	u4651
  2465     0504  2D06               	goto	u4650
  2466     0505                     u4651:
  2467     0505  2D25               	goto	l230
  2468     0506                     u4650:
  2469     0506                     l3692:
  2470                           
  2471                           ;main.c: 191:                 pos++;
  2472     0506  3001               	movlw	1
  2473     0507  00FF               	movwf	btemp+1
  2474     0508  087F               	movf	btemp+1,w
  2475     0509  07D3               	addwf	main@pos^(0+128),f
  2476     050A                     l3694:
  2477                           
  2478                           ;main.c: 192:                 if(pos > 11)
  2479     050A  300C               	movlw	12
  2480     050B  0253               	subwf	main@pos^(0+128),w
  2481     050C  1C03               	skipc
  2482     050D  2D0F               	goto	u4661
  2483     050E  2D10               	goto	u4660
  2484     050F                     u4661:
  2485     050F  2D1D               	goto	l3700
  2486     0510                     u4660:
  2487     0510                     l3696:
  2488                           
  2489                           ;main.c: 193:                     pos = 8;
  2490     0510  3008               	movlw	8
  2491     0511  00D3               	movwf	main@pos^(0+128)
  2492     0512  2D1D               	goto	l3700
  2493     0513                     l233:
  2494                           
  2495                           ;main.c: 195:                     if(PORTBbits.RB2 == 1)
  2496     0513  1283               	bcf	3,5	;RP0=0, select bank0
  2497     0514  1303               	bcf	3,6	;RP1=0, select bank0
  2498     0515  1D06               	btfss	6,2	;volatile
  2499     0516  2D18               	goto	u4671
  2500     0517  2D19               	goto	u4670
  2501     0518                     u4671:
  2502     0518  2D1D               	goto	l3700
  2503     0519                     u4670:
  2504     0519                     l3698:
  2505                           
  2506                           ;main.c: 196:                         ok = 0;
  2507     0519  1683               	bsf	3,5	;RP0=1, select bank1
  2508     051A  1303               	bcf	3,6	;RP1=0, select bank1
  2509     051B  01D1               	clrf	main@ok^(0+128)
  2510     051C  01D2               	clrf	(main@ok+1)^(0+128)
  2511     051D                     l3700:
  2512                           
  2513                           ;main.c: 194:                 while(ok == 1){
  2514     051D  1683               	bsf	3,5	;RP0=1, select bank1
  2515     051E  1303               	bcf	3,6	;RP1=0, select bank1
  2516     051F  0351               	decf	main@ok^(0+128),w
  2517     0520  0452               	iorwf	(main@ok+1)^(0+128),w
  2518     0521  1903               	btfsc	3,2
  2519     0522  2D24               	goto	u4681
  2520     0523  2D25               	goto	u4680
  2521     0524                     u4681:
  2522     0524  2D13               	goto	l233
  2523     0525                     u4680:
  2524     0525                     l230:	
  2525                           ;main.c: 198:             }
  2526                           
  2527                           
  2528                           ;main.c: 199:             if(PORTBbits.RB3 ==0 && ok == 1 && alarm_status == 0){
  2529     0525  1283               	bcf	3,5	;RP0=0, select bank0
  2530     0526  1986               	btfsc	6,3	;volatile
  2531     0527  2D29               	goto	u4691
  2532     0528  2D2A               	goto	u4690
  2533     0529                     u4691:
  2534     0529  2D81               	goto	l236
  2535     052A                     u4690:
  2536     052A                     l3702:
  2537     052A  1683               	bsf	3,5	;RP0=1, select bank1
  2538     052B  1303               	bcf	3,6	;RP1=0, select bank1
  2539     052C  0351               	decf	main@ok^(0+128),w
  2540     052D  0452               	iorwf	(main@ok+1)^(0+128),w
  2541     052E  1D03               	btfss	3,2
  2542     052F  2D31               	goto	u4701
  2543     0530  2D32               	goto	u4700
  2544     0531                     u4701:
  2545     0531  2D81               	goto	l236
  2546     0532                     u4700:
  2547     0532                     l3704:
  2548     0532  0868               	movf	_alarm_status^(0+128),w
  2549     0533  1D03               	btfss	3,2
  2550     0534  2D36               	goto	u4711
  2551     0535  2D37               	goto	u4710
  2552     0536                     u4711:
  2553     0536  2D81               	goto	l236
  2554     0537                     u4710:
  2555     0537                     l3706:
  2556                           
  2557                           ;main.c: 200:                 alarm_digit[(pos - 8)]++;
  2558     0537  3001               	movlw	1
  2559     0538  00FF               	movwf	btemp+1
  2560     0539  0853               	movf	main@pos^(0+128),w
  2561     053A  3EF8               	addlw	248
  2562     053B  3ECD               	addlw	(low (main@alarm_digit| 0))& (0+255)
  2563     053C  0084               	movwf	4
  2564     053D  087F               	movf	btemp+1,w
  2565     053E  1383               	bcf	3,7	;select IRP bank1
  2566     053F  0780               	addwf	0,f
  2567     0540                     l3708:
  2568                           
  2569                           ;main.c: 201:                 if(alarm_digit[(pos - 8)] > '9') alarm_digit[(pos - 8)] = 
      +                          '0';
  2570     0540  0853               	movf	main@pos^(0+128),w
  2571     0541  3EF8               	addlw	248
  2572     0542  3ECD               	addlw	(low (main@alarm_digit| 0))& (0+255)
  2573     0543  0084               	movwf	4
  2574     0544  303A               	movlw	58
  2575     0545  0200               	subwf	0,w
  2576     0546  1C03               	skipc
  2577     0547  2D49               	goto	u4721
  2578     0548  2D4A               	goto	u4720
  2579     0549                     u4721:
  2580     0549  2D50               	goto	l3712
  2581     054A                     u4720:
  2582     054A                     l3710:
  2583     054A  0853               	movf	main@pos^(0+128),w
  2584     054B  3EF8               	addlw	248
  2585     054C  3ECD               	addlw	(low (main@alarm_digit| 0))& (0+255)
  2586     054D  0084               	movwf	4
  2587     054E  3030               	movlw	48
  2588     054F  0080               	movwf	0
  2589     0550                     l3712:
  2590                           
  2591                           ;main.c: 202:                 if(alarm_digit[0] > '2') alarm_digit[0] = '0';
  2592     0550  3033               	movlw	51
  2593     0551  024D               	subwf	main@alarm_digit^(0+128),w
  2594     0552  1C03               	skipc
  2595     0553  2D55               	goto	u4731
  2596     0554  2D56               	goto	u4730
  2597     0555                     u4731:
  2598     0555  2D58               	goto	l238
  2599     0556                     u4730:
  2600     0556                     l3714:
  2601     0556  3030               	movlw	48
  2602     0557  00CD               	movwf	main@alarm_digit^(0+128)
  2603     0558                     l238:
  2604                           
  2605                           ;main.c: 203:                 if(alarm_digit[2] > '5') alarm_digit[2] = '0';
  2606     0558  3036               	movlw	54
  2607     0559  024F               	subwf	(main@alarm_digit^(0+128)+2),w
  2608     055A  1C03               	skipc
  2609     055B  2D5D               	goto	u4741
  2610     055C  2D5E               	goto	u4740
  2611     055D                     u4741:
  2612     055D  2D60               	goto	l3718
  2613     055E                     u4740:
  2614     055E                     l3716:
  2615     055E  3030               	movlw	48
  2616     055F  00CF               	movwf	(main@alarm_digit^(0+128)+2)
  2617     0560                     l3718:
  2618                           
  2619                           ;main.c: 204:                 if(alarm_digit[0] == '2')
  2620     0560  3032               	movlw	50
  2621     0561  064D               	xorwf	main@alarm_digit^(0+128),w
  2622     0562  1D03               	btfss	3,2
  2623     0563  2D65               	goto	u4751
  2624     0564  2D66               	goto	u4750
  2625     0565                     u4751:
  2626     0565  2D79               	goto	l3726
  2627     0566                     u4750:
  2628     0566                     l3720:
  2629                           
  2630                           ;main.c: 205:                     if(alarm_digit[1] > '4') alarm_digit[1] = '0';
  2631     0566  3035               	movlw	53
  2632     0567  024E               	subwf	(main@alarm_digit^(0+128)+1),w
  2633     0568  1C03               	skipc
  2634     0569  2D6B               	goto	u4761
  2635     056A  2D6C               	goto	u4760
  2636     056B                     u4761:
  2637     056B  2D79               	goto	l3726
  2638     056C                     u4760:
  2639     056C                     l3722:
  2640     056C  3030               	movlw	48
  2641     056D  00CE               	movwf	(main@alarm_digit^(0+128)+1)
  2642     056E  2D79               	goto	l3726
  2643     056F                     l243:
  2644                           
  2645                           ;main.c: 207:                     if(PORTBbits.RB3 == 1) ok = 0;
  2646     056F  1283               	bcf	3,5	;RP0=0, select bank0
  2647     0570  1303               	bcf	3,6	;RP1=0, select bank0
  2648     0571  1D86               	btfss	6,3	;volatile
  2649     0572  2D74               	goto	u4771
  2650     0573  2D75               	goto	u4770
  2651     0574                     u4771:
  2652     0574  2D79               	goto	l3726
  2653     0575                     u4770:
  2654     0575                     l3724:
  2655     0575  1683               	bsf	3,5	;RP0=1, select bank1
  2656     0576  1303               	bcf	3,6	;RP1=0, select bank1
  2657     0577  01D1               	clrf	main@ok^(0+128)
  2658     0578  01D2               	clrf	(main@ok+1)^(0+128)
  2659     0579                     l3726:
  2660                           
  2661                           ;main.c: 206:                 while(ok == 1)
  2662     0579  1683               	bsf	3,5	;RP0=1, select bank1
  2663     057A  1303               	bcf	3,6	;RP1=0, select bank1
  2664     057B  0351               	decf	main@ok^(0+128),w
  2665     057C  0452               	iorwf	(main@ok+1)^(0+128),w
  2666     057D  1903               	btfsc	3,2
  2667     057E  2D80               	goto	u4781
  2668     057F  2D81               	goto	u4780
  2669     0580                     u4781:
  2670     0580  2D6F               	goto	l243
  2671     0581                     u4780:
  2672     0581                     l236:	
  2673                           ;main.c: 208:             }
  2674                           
  2675                           
  2676                           ;main.c: 209:             if(PORTBbits.RB4 == 0 && ok==1 && alarm_status == 0){
  2677     0581  1283               	bcf	3,5	;RP0=0, select bank0
  2678     0582  1A06               	btfsc	6,4	;volatile
  2679     0583  2D85               	goto	u4791
  2680     0584  2D86               	goto	u4790
  2681     0585                     u4791:
  2682     0585  2DDB               	goto	l3752
  2683     0586                     u4790:
  2684     0586                     l3728:
  2685     0586  1683               	bsf	3,5	;RP0=1, select bank1
  2686     0587  1303               	bcf	3,6	;RP1=0, select bank1
  2687     0588  0351               	decf	main@ok^(0+128),w
  2688     0589  0452               	iorwf	(main@ok+1)^(0+128),w
  2689     058A  1D03               	btfss	3,2
  2690     058B  2D8D               	goto	u4801
  2691     058C  2D8E               	goto	u4800
  2692     058D                     u4801:
  2693     058D  2DDB               	goto	l3752
  2694     058E                     u4800:
  2695     058E                     l3730:
  2696     058E  0868               	movf	_alarm_status^(0+128),w
  2697     058F  1D03               	btfss	3,2
  2698     0590  2D92               	goto	u4811
  2699     0591  2D93               	goto	u4810
  2700     0592                     u4811:
  2701     0592  2DDB               	goto	l3752
  2702     0593                     u4810:
  2703     0593                     l3732:
  2704                           
  2705                           ;main.c: 211:                 alarm_digit[(pos-8)]--;
  2706     0593  0853               	movf	main@pos^(0+128),w
  2707     0594  3EF8               	addlw	248
  2708     0595  3ECD               	addlw	(low (main@alarm_digit| 0))& (0+255)
  2709     0596  0084               	movwf	4
  2710     0597  3001               	movlw	1
  2711     0598  1383               	bcf	3,7	;select IRP bank1
  2712     0599  0280               	subwf	0,f
  2713                           
  2714                           ;main.c: 212:                 if(alarm_digit[(pos - 8)] < '0') alarm_digit[(pos - 8)] = 
      +                          '9';
  2715     059A  0853               	movf	main@pos^(0+128),w
  2716     059B  3EF8               	addlw	248
  2717     059C  3ECD               	addlw	(low (main@alarm_digit| 0))& (0+255)
  2718     059D  0084               	movwf	4
  2719     059E  3030               	movlw	48
  2720     059F  0200               	subwf	0,w
  2721     05A0  1803               	skipnc
  2722     05A1  2DA3               	goto	u4821
  2723     05A2  2DA4               	goto	u4820
  2724     05A3                     u4821:
  2725     05A3  2DAA               	goto	l3736
  2726     05A4                     u4820:
  2727     05A4                     l3734:
  2728     05A4  0853               	movf	main@pos^(0+128),w
  2729     05A5  3EF8               	addlw	248
  2730     05A6  3ECD               	addlw	(low (main@alarm_digit| 0))& (0+255)
  2731     05A7  0084               	movwf	4
  2732     05A8  3039               	movlw	57
  2733     05A9  0080               	movwf	0
  2734     05AA                     l3736:
  2735                           
  2736                           ;main.c: 213:                 if(alarm_digit[2] < '0') alarm_digit[2] = '5';
  2737     05AA  3030               	movlw	48
  2738     05AB  024F               	subwf	(main@alarm_digit^(0+128)+2),w
  2739     05AC  1803               	skipnc
  2740     05AD  2DAF               	goto	u4831
  2741     05AE  2DB0               	goto	u4830
  2742     05AF                     u4831:
  2743     05AF  2DB2               	goto	l248
  2744     05B0                     u4830:
  2745     05B0                     l3738:
  2746     05B0  3035               	movlw	53
  2747     05B1  00CF               	movwf	(main@alarm_digit^(0+128)+2)
  2748     05B2                     l248:
  2749                           
  2750                           ;main.c: 214:                 if(alarm_digit[0] < '0') alarm_digit[0] = '2';
  2751     05B2  3030               	movlw	48
  2752     05B3  024D               	subwf	main@alarm_digit^(0+128),w
  2753     05B4  1803               	skipnc
  2754     05B5  2DB7               	goto	u4841
  2755     05B6  2DB8               	goto	u4840
  2756     05B7                     u4841:
  2757     05B7  2DBA               	goto	l3742
  2758     05B8                     u4840:
  2759     05B8                     l3740:
  2760     05B8  3032               	movlw	50
  2761     05B9  00CD               	movwf	main@alarm_digit^(0+128)
  2762     05BA                     l3742:
  2763                           
  2764                           ;main.c: 215:                 if(alarm_digit[0] == '2')
  2765     05BA  3032               	movlw	50
  2766     05BB  064D               	xorwf	main@alarm_digit^(0+128),w
  2767     05BC  1D03               	btfss	3,2
  2768     05BD  2DBF               	goto	u4851
  2769     05BE  2DC0               	goto	u4850
  2770     05BF                     u4851:
  2771     05BF  2DD3               	goto	l3750
  2772     05C0                     u4850:
  2773     05C0                     l3744:
  2774                           
  2775                           ;main.c: 216:                     if(alarm_digit[1] < '0')
  2776     05C0  3030               	movlw	48
  2777     05C1  024E               	subwf	(main@alarm_digit^(0+128)+1),w
  2778     05C2  1803               	skipnc
  2779     05C3  2DC5               	goto	u4861
  2780     05C4  2DC6               	goto	u4860
  2781     05C5                     u4861:
  2782     05C5  2DD3               	goto	l3750
  2783     05C6                     u4860:
  2784     05C6                     l3746:
  2785                           
  2786                           ;main.c: 217:                         alarm_digit[1] = '4';
  2787     05C6  3034               	movlw	52
  2788     05C7  00CE               	movwf	(main@alarm_digit^(0+128)+1)
  2789     05C8  2DD3               	goto	l3750
  2790     05C9                     l253:
  2791                           
  2792                           ;main.c: 219:                     if(PORTBbits.RB4 == 1)
  2793     05C9  1283               	bcf	3,5	;RP0=0, select bank0
  2794     05CA  1303               	bcf	3,6	;RP1=0, select bank0
  2795     05CB  1E06               	btfss	6,4	;volatile
  2796     05CC  2DCE               	goto	u4871
  2797     05CD  2DCF               	goto	u4870
  2798     05CE                     u4871:
  2799     05CE  2DD3               	goto	l3750
  2800     05CF                     u4870:
  2801     05CF                     l3748:
  2802                           
  2803                           ;main.c: 220:                         ok = 0;
  2804     05CF  1683               	bsf	3,5	;RP0=1, select bank1
  2805     05D0  1303               	bcf	3,6	;RP1=0, select bank1
  2806     05D1  01D1               	clrf	main@ok^(0+128)
  2807     05D2  01D2               	clrf	(main@ok+1)^(0+128)
  2808     05D3                     l3750:
  2809                           
  2810                           ;main.c: 218:                 while(ok == 1){
  2811     05D3  1683               	bsf	3,5	;RP0=1, select bank1
  2812     05D4  1303               	bcf	3,6	;RP1=0, select bank1
  2813     05D5  0351               	decf	main@ok^(0+128),w
  2814     05D6  0452               	iorwf	(main@ok+1)^(0+128),w
  2815     05D7  1903               	btfsc	3,2
  2816     05D8  2DDA               	goto	u4881
  2817     05D9  2DDB               	goto	u4880
  2818     05DA                     u4881:
  2819     05DA  2DC9               	goto	l253
  2820     05DB                     u4880:
  2821     05DB                     l3752:
  2822                           
  2823                           ;main.c: 223:             if(alarm_status == 1 && alarm_digit[0] == hour_1 && alarm_digi
      +                          t[1] == hour_0 && alarm_digit[2] == min_1 && alarm_digit[3] == min_0 && time_aux ==1){
  2824     05DB  1683               	bsf	3,5	;RP0=1, select bank1
  2825     05DC  1303               	bcf	3,6	;RP1=0, select bank1
  2826     05DD  0368               	decf	_alarm_status^(0+128),w
  2827     05DE  1D03               	btfss	3,2
  2828     05DF  2DE1               	goto	u4891
  2829     05E0  2DE2               	goto	u4890
  2830     05E1                     u4891:
  2831     05E1  2A6E               	goto	l3536
  2832     05E2                     u4890:
  2833     05E2                     l3754:
  2834     05E2  084D               	movf	main@alarm_digit^(0+128),w
  2835     05E3  0647               	xorwf	main@hour_1^(0+128),w
  2836     05E4  1D03               	skipz
  2837     05E5  2DE7               	goto	u4901
  2838     05E6  2DE8               	goto	u4900
  2839     05E7                     u4901:
  2840     05E7  2A6E               	goto	l3536
  2841     05E8                     u4900:
  2842     05E8                     l3756:
  2843     05E8  084E               	movf	(main@alarm_digit^(0+128)+1),w
  2844     05E9  0646               	xorwf	main@hour_0^(0+128),w
  2845     05EA  1D03               	skipz
  2846     05EB  2DED               	goto	u4911
  2847     05EC  2DEE               	goto	u4910
  2848     05ED                     u4911:
  2849     05ED  2A6E               	goto	l3536
  2850     05EE                     u4910:
  2851     05EE                     l3758:
  2852     05EE  084F               	movf	(main@alarm_digit^(0+128)+2),w
  2853     05EF  0645               	xorwf	main@min_1^(0+128),w
  2854     05F0  1D03               	skipz
  2855     05F1  2DF3               	goto	u4921
  2856     05F2  2DF4               	goto	u4920
  2857     05F3                     u4921:
  2858     05F3  2A6E               	goto	l3536
  2859     05F4                     u4920:
  2860     05F4                     l3760:
  2861     05F4  0850               	movf	(main@alarm_digit^(0+128)+3),w
  2862     05F5  0644               	xorwf	main@min_0^(0+128),w
  2863     05F6  1D03               	skipz
  2864     05F7  2DF9               	goto	u4931
  2865     05F8  2DFA               	goto	u4930
  2866     05F9                     u4931:
  2867     05F9  2A6E               	goto	l3536
  2868     05FA                     u4930:
  2869     05FA                     l3762:
  2870     05FA  033E               	decf	main@time_aux^(0+128),w
  2871     05FB  043F               	iorwf	(main@time_aux+1)^(0+128),w
  2872     05FC  1D03               	btfss	3,2
  2873     05FD  2DFF               	goto	u4941
  2874     05FE  2E00               	goto	u4940
  2875     05FF                     u4941:
  2876     05FF  2A6E               	goto	l3536
  2877     0600                     u4940:
  2878     0600                     l3764:
  2879                           
  2880                           ;main.c: 224:                 TRISDbits.TRISD2 = 0;
  2881     0600  1108               	bcf	8,2	;volatile
  2882     0601                     l3766:
  2883                           
  2884                           ;main.c: 225:                 for(uint8_t j =0 ; j< 4 ; j++){
  2885     0601  01C8               	clrf	main@j^(0+128)
  2886     0602                     l3768:
  2887     0602  3004               	movlw	4
  2888     0603  0248               	subwf	main@j^(0+128),w
  2889     0604  1C03               	skipc
  2890     0605  2E07               	goto	u4951
  2891     0606  2E08               	goto	u4950
  2892     0607                     u4951:
  2893     0607  2E09               	goto	l3772
  2894     0608                     u4950:
  2895     0608  2E48               	goto	l3792
  2896     0609                     l3772:
  2897                           
  2898                           ;main.c: 226:                     for(uint8_t i =0 ; i < 200 ; i++){
  2899     0609  01C9               	clrf	main@i^(0+128)
  2900     060A                     l3774:
  2901     060A  30C8               	movlw	200
  2902     060B  0249               	subwf	main@i^(0+128),w
  2903     060C  1C03               	skipc
  2904     060D  2E0F               	goto	u4961
  2905     060E  2E10               	goto	u4960
  2906     060F                     u4961:
  2907     060F  2E11               	goto	l259
  2908     0610                     u4960:
  2909     0610  2E32               	goto	l3786
  2910     0611                     l259:
  2911                           
  2912                           ;main.c: 227:                         PORTDbits.RD2 = 1;
  2913     0611  1283               	bcf	3,5	;RP0=0, select bank0
  2914     0612  1303               	bcf	3,6	;RP1=0, select bank0
  2915     0613  1508               	bsf	8,2	;volatile
  2916     0614                     l3778:
  2917                           
  2918                           ;main.c: 228:                         _delay((unsigned long)((500)*(16000000/4000000.0))
      +                          );
  2919     0614  3003               	movlw	3
  2920     0615  1683               	bsf	3,5	;RP0=1, select bank1
  2921     0616  1303               	bcf	3,6	;RP1=0, select bank1
  2922     0617  00A1               	movwf	(??_main^(0+128)+1)
  2923     0618  3097               	movlw	151
  2924     0619  00A0               	movwf	??_main^(0+128)
  2925     061A                     u5057:
  2926     061A  0BA0               	decfsz	??_main^(0+128),f
  2927     061B  2E1A               	goto	u5057
  2928     061C  0BA1               	decfsz	(??_main^(0+128)+1),f
  2929     061D  2E1A               	goto	u5057
  2930     061E                     l3780:
  2931                           
  2932                           ;main.c: 229:                         PORTDbits.RD2 = 0;
  2933     061E  1283               	bcf	3,5	;RP0=0, select bank0
  2934     061F  1303               	bcf	3,6	;RP1=0, select bank0
  2935     0620  1108               	bcf	8,2	;volatile
  2936                           
  2937                           ;main.c: 230:                         _delay((unsigned long)((500)*(16000000/4000000.0))
      +                          );
  2938     0621  3003               	movlw	3
  2939     0622  1683               	bsf	3,5	;RP0=1, select bank1
  2940     0623  1303               	bcf	3,6	;RP1=0, select bank1
  2941     0624  00A1               	movwf	(??_main^(0+128)+1)
  2942     0625  3097               	movlw	151
  2943     0626  00A0               	movwf	??_main^(0+128)
  2944     0627                     u5067:
  2945     0627  0BA0               	decfsz	??_main^(0+128),f
  2946     0628  2E27               	goto	u5067
  2947     0629  0BA1               	decfsz	(??_main^(0+128)+1),f
  2948     062A  2E27               	goto	u5067
  2949     062B                     l3782:
  2950                           
  2951                           ;main.c: 231:                     }
  2952     062B  3001               	movlw	1
  2953     062C  00FF               	movwf	btemp+1
  2954     062D  087F               	movf	btemp+1,w
  2955     062E  1683               	bsf	3,5	;RP0=1, select bank1
  2956     062F  1303               	bcf	3,6	;RP1=0, select bank1
  2957     0630  07C9               	addwf	main@i^(0+128),f
  2958     0631  2E0A               	goto	l3774
  2959     0632                     l3786:
  2960                           
  2961                           ;main.c: 232:                     _delay((unsigned long)((200)*(16000000/4000.0)));
  2962     0632  3005               	movlw	5
  2963     0633  1683               	bsf	3,5	;RP0=1, select bank1
  2964     0634  1303               	bcf	3,6	;RP1=0, select bank1
  2965     0635  00A2               	movwf	(??_main^(0+128)+2)
  2966     0636  300F               	movlw	15
  2967     0637  00A1               	movwf	(??_main^(0+128)+1)
  2968     0638  30F0               	movlw	240
  2969     0639  00A0               	movwf	??_main^(0+128)
  2970     063A                     u5077:
  2971     063A  0BA0               	decfsz	??_main^(0+128),f
  2972     063B  2E3A               	goto	u5077
  2973     063C  0BA1               	decfsz	(??_main^(0+128)+1),f
  2974     063D  2E3A               	goto	u5077
  2975     063E  0BA2               	decfsz	(??_main^(0+128)+2),f
  2976     063F  2E3A               	goto	u5077
  2977     0640  0000               	nop
  2978     0641                     l3788:
  2979                           
  2980                           ;main.c: 233:                 }
  2981     0641  3001               	movlw	1
  2982     0642  00FF               	movwf	btemp+1
  2983     0643  087F               	movf	btemp+1,w
  2984     0644  1683               	bsf	3,5	;RP0=1, select bank1
  2985     0645  1303               	bcf	3,6	;RP1=0, select bank1
  2986     0646  07C8               	addwf	main@j^(0+128),f
  2987     0647  2E02               	goto	l3768
  2988     0648                     l3792:
  2989                           
  2990                           ;main.c: 234:                 time_aux = 0;
  2991     0648  01BE               	clrf	main@time_aux^(0+128)
  2992     0649  01BF               	clrf	(main@time_aux+1)^(0+128)
  2993     064A  2A6E               	goto	l3536
  2994     064B                     l3794:
  2995     064B  3002               	movlw	2
  2996     064C  064C               	xorwf	main@device_mode^(0+128),w
  2997     064D  1D03               	btfss	3,2
  2998     064E  2E50               	goto	u4971
  2999     064F  2E51               	goto	u4970
  3000     0650                     u4971:
  3001     0650  2F2A               	goto	l3838
  3002     0651                     u4970:
  3003     0651                     l3796:
  3004                           
  3005                           ;main.c: 240:             int aux;;main.c: 242:             lcd_setCursor(1,6);
  3006     0651  3006               	movlw	6
  3007     0652  00F6               	movwf	lcd_setCursor@col
  3008     0653  3001               	movlw	1
  3009     0654  160A  118A  223F  120A  118A  	fcall	_lcd_setCursor
  3010     0659                     l3798:
  3011                           
  3012                           ;main.c: 243:             lcd_writeString("DIGITAL");
  3013     0659  304B               	movlw	(low ((STR_18-__stringbase)| (0+32768)))& (0+255)
  3014     065A  160A  118A  2301  120A  118A  	fcall	_lcd_writeString
  3015     065F                     l3800:
  3016                           
  3017                           ;main.c: 244:             DHT11_Start();
  3018     065F  160A  118A  2208  120A  118A  	fcall	_DHT11_Start
  3019     0664                     l3802:
  3020                           
  3021                           ;main.c: 245:             DHT11_checkResponse();
  3022     0664  160A  118A  21D6  120A  118A  	fcall	_DHT11_checkResponse
  3023     0669                     l3804:
  3024                           
  3025                           ;main.c: 247:             if (check_bit == 1){
  3026     0669  1683               	bsf	3,5	;RP0=1, select bank1
  3027     066A  1303               	bcf	3,6	;RP1=0, select bank1
  3028     066B  0366               	decf	_check_bit^(0+128),w
  3029     066C  0467               	iorwf	(_check_bit+1)^(0+128),w
  3030     066D  1D03               	btfss	3,2
  3031     066E  2E70               	goto	u4981
  3032     066F  2E71               	goto	u4980
  3033     0670                     u4981:
  3034     0670  2F1B               	goto	l3834
  3035     0671                     u4980:
  3036     0671                     l3806:
  3037                           
  3038                           ;main.c: 248:                 int rh_octet_1 = DHT11_readData();
  3039     0671  160A  118A  2326  120A  118A  	fcall	_DHT11_readData
  3040     0676  1683               	bsf	3,5	;RP0=1, select bank1
  3041     0677  1303               	bcf	3,6	;RP1=0, select bank1
  3042     0678  00A0               	movwf	??_main^(0+128)
  3043     0679  01A1               	clrf	(??_main^(0+128)+1)
  3044     067A  0820               	movf	??_main^(0+128),w
  3045     067B  00C0               	movwf	main@rh_octet_1^(0+128)
  3046     067C  0821               	movf	(??_main+1)^(0+128),w
  3047     067D  00C1               	movwf	(main@rh_octet_1+1)^(0+128)
  3048                           
  3049                           ;main.c: 249:                 int rh_octet_2 = DHT11_readData();
  3050     067E  160A  118A  2326  120A  118A  	fcall	_DHT11_readData
  3051     0683  1683               	bsf	3,5	;RP0=1, select bank1
  3052     0684  1303               	bcf	3,6	;RP1=0, select bank1
  3053     0685  00A0               	movwf	??_main^(0+128)
  3054     0686  01A1               	clrf	(??_main^(0+128)+1)
  3055     0687  0820               	movf	??_main^(0+128),w
  3056     0688  00B2               	movwf	main@rh_octet_2^(0+128)
  3057     0689  0821               	movf	(??_main+1)^(0+128),w
  3058     068A  00B3               	movwf	(main@rh_octet_2+1)^(0+128)
  3059                           
  3060                           ;main.c: 250:                 int temp_octet_1 = DHT11_readData();
  3061     068B  160A  118A  2326  120A  118A  	fcall	_DHT11_readData
  3062     0690  1683               	bsf	3,5	;RP0=1, select bank1
  3063     0691  1303               	bcf	3,6	;RP1=0, select bank1
  3064     0692  00A0               	movwf	??_main^(0+128)
  3065     0693  01A1               	clrf	(??_main^(0+128)+1)
  3066     0694  0820               	movf	??_main^(0+128),w
  3067     0695  00C2               	movwf	main@temp_octet_1^(0+128)
  3068     0696  0821               	movf	(??_main+1)^(0+128),w
  3069     0697  00C3               	movwf	(main@temp_octet_1+1)^(0+128)
  3070                           
  3071                           ;main.c: 251:                 int temp_octet_2 = DHT11_readData();
  3072     0698  160A  118A  2326  120A  118A  	fcall	_DHT11_readData
  3073     069D  1683               	bsf	3,5	;RP0=1, select bank1
  3074     069E  1303               	bcf	3,6	;RP1=0, select bank1
  3075     069F  00A0               	movwf	??_main^(0+128)
  3076     06A0  01A1               	clrf	(??_main^(0+128)+1)
  3077     06A1  0820               	movf	??_main^(0+128),w
  3078     06A2  00B4               	movwf	main@temp_octet_2^(0+128)
  3079     06A3  0821               	movf	(??_main+1)^(0+128),w
  3080     06A4  00B5               	movwf	(main@temp_octet_2+1)^(0+128)
  3081                           
  3082                           ;main.c: 253:                 lcd_setCursor(2,1);
  3083     06A5  01F6               	clrf	lcd_setCursor@col
  3084     06A6  0AF6               	incf	lcd_setCursor@col,f
  3085     06A7  3002               	movlw	2
  3086     06A8  160A  118A  223F  120A  118A  	fcall	_lcd_setCursor
  3087     06AD                     l3808:
  3088                           
  3089                           ;main.c: 254:                 lcd_writeString("Temp=");
  3090     06AD  3068               	movlw	(low ((STR_19-__stringbase)| (0+32768)))& (0+255)
  3091     06AE  160A  118A  2301  120A  118A  	fcall	_lcd_writeString
  3092     06B3                     l3810:
  3093                           
  3094                           ;main.c: 255:                 if(temp_octet_2==0){
  3095     06B3  1683               	bsf	3,5	;RP0=1, select bank1
  3096     06B4  1303               	bcf	3,6	;RP1=0, select bank1
  3097     06B5  0834               	movf	main@temp_octet_2^(0+128),w
  3098     06B6  0435               	iorwf	(main@temp_octet_2+1)^(0+128),w
  3099     06B7  1D03               	btfss	3,2
  3100     06B8  2EBA               	goto	u4991
  3101     06B9  2EBB               	goto	u4990
  3102     06BA                     u4991:
  3103     06BA  2ED0               	goto	l3816
  3104     06BB                     u4990:
  3105     06BB                     l3812:
  3106                           
  3107                           ;main.c: 256:                     aux=2*temp_octet_1;
  3108     06BB  1003               	clrc
  3109     06BC  0D42               	rlf	main@temp_octet_1^(0+128),w
  3110     06BD  00CA               	movwf	main@aux^(0+128)
  3111     06BE  0D43               	rlf	(main@temp_octet_1+1)^(0+128),w
  3112     06BF  00CB               	movwf	(main@aux+1)^(0+128)
  3113     06C0                     l3814:
  3114                           
  3115                           ;main.c: 257:                     printInteger(aux);
  3116     06C0  084B               	movf	(main@aux+1)^(0+128),w
  3117     06C1  1283               	bcf	3,5	;RP0=0, select bank0
  3118     06C2  1303               	bcf	3,6	;RP1=0, select bank0
  3119     06C3  00EA               	movwf	printInteger@num+1
  3120     06C4  1683               	bsf	3,5	;RP0=1, select bank1
  3121     06C5  1303               	bcf	3,6	;RP1=0, select bank1
  3122     06C6  084A               	movf	main@aux^(0+128),w
  3123     06C7  1283               	bcf	3,5	;RP0=0, select bank0
  3124     06C8  1303               	bcf	3,6	;RP1=0, select bank0
  3125     06C9  00E9               	movwf	printInteger@num
  3126     06CA  160A  118A  25C2  120A  118A  	fcall	_printInteger
  3127                           
  3128                           ;main.c: 258:                 }
  3129     06CF  2EE0               	goto	l3820
  3130     06D0                     l3816:
  3131                           
  3132                           ;main.c: 260:                     aux=2*temp_octet_1+1;
  3133     06D0  0843               	movf	(main@temp_octet_1+1)^(0+128),w
  3134     06D1  00A1               	movwf	(??_main^(0+128)+1)
  3135     06D2  0842               	movf	main@temp_octet_1^(0+128),w
  3136     06D3  00A0               	movwf	??_main^(0+128)
  3137     06D4  1003               	clrc
  3138     06D5  0DA0               	rlf	??_main^(0+128),f
  3139     06D6  0DA1               	rlf	(??_main^(0+128)+1),f
  3140     06D7  0820               	movf	??_main^(0+128),w
  3141     06D8  3E01               	addlw	1
  3142     06D9  00CA               	movwf	main@aux^(0+128)
  3143     06DA  0821               	movf	(??_main+1)^(0+128),w
  3144     06DB  1803               	skipnc
  3145     06DC  3E01               	addlw	1
  3146     06DD  3E00               	addlw	0
  3147     06DE  00CB               	movwf	(main@aux+1)^(0+128)
  3148     06DF  2EC0               	goto	l3814
  3149     06E0                     l3820:
  3150                           
  3151                           ;main.c: 264:                 lcd_setCursor(2,11);
  3152     06E0  300B               	movlw	11
  3153     06E1  00F6               	movwf	lcd_setCursor@col
  3154     06E2  3002               	movlw	2
  3155     06E3  160A  118A  223F  120A  118A  	fcall	_lcd_setCursor
  3156     06E8                     l3822:
  3157                           
  3158                           ;main.c: 265:                 lcd_writeString("Hum=");
  3159     06E8  306E               	movlw	(low ((STR_20-__stringbase)| (0+32768)))& (0+255)
  3160     06E9  160A  118A  2301  120A  118A  	fcall	_lcd_writeString
  3161     06EE                     l3824:
  3162                           
  3163                           ;main.c: 266:                 if(rh_octet_2==0){
  3164     06EE  1683               	bsf	3,5	;RP0=1, select bank1
  3165     06EF  1303               	bcf	3,6	;RP1=0, select bank1
  3166     06F0  0832               	movf	main@rh_octet_2^(0+128),w
  3167     06F1  0433               	iorwf	(main@rh_octet_2+1)^(0+128),w
  3168     06F2  1D03               	btfss	3,2
  3169     06F3  2EF5               	goto	u5001
  3170     06F4  2EF6               	goto	u5000
  3171     06F5                     u5001:
  3172     06F5  2F0B               	goto	l3830
  3173     06F6                     u5000:
  3174     06F6                     l3826:
  3175                           
  3176                           ;main.c: 267:                     aux=2*rh_octet_1;
  3177     06F6  1003               	clrc
  3178     06F7  0D40               	rlf	main@rh_octet_1^(0+128),w
  3179     06F8  00CA               	movwf	main@aux^(0+128)
  3180     06F9  0D41               	rlf	(main@rh_octet_1+1)^(0+128),w
  3181     06FA  00CB               	movwf	(main@aux+1)^(0+128)
  3182     06FB                     l3828:
  3183                           
  3184                           ;main.c: 268:                     printInteger(aux);
  3185     06FB  084B               	movf	(main@aux+1)^(0+128),w
  3186     06FC  1283               	bcf	3,5	;RP0=0, select bank0
  3187     06FD  1303               	bcf	3,6	;RP1=0, select bank0
  3188     06FE  00EA               	movwf	printInteger@num+1
  3189     06FF  1683               	bsf	3,5	;RP0=1, select bank1
  3190     0700  1303               	bcf	3,6	;RP1=0, select bank1
  3191     0701  084A               	movf	main@aux^(0+128),w
  3192     0702  1283               	bcf	3,5	;RP0=0, select bank0
  3193     0703  1303               	bcf	3,6	;RP1=0, select bank0
  3194     0704  00E9               	movwf	printInteger@num
  3195     0705  160A  118A  25C2  120A  118A  	fcall	_printInteger
  3196                           
  3197                           ;main.c: 269:                 }
  3198     070A  2A6E               	goto	l3536
  3199     070B                     l3830:
  3200                           
  3201                           ;main.c: 271:                     aux=2*rh_octet_1+1;
  3202     070B  0841               	movf	(main@rh_octet_1+1)^(0+128),w
  3203     070C  00A1               	movwf	(??_main^(0+128)+1)
  3204     070D  0840               	movf	main@rh_octet_1^(0+128),w
  3205     070E  00A0               	movwf	??_main^(0+128)
  3206     070F  1003               	clrc
  3207     0710  0DA0               	rlf	??_main^(0+128),f
  3208     0711  0DA1               	rlf	(??_main^(0+128)+1),f
  3209     0712  0820               	movf	??_main^(0+128),w
  3210     0713  3E01               	addlw	1
  3211     0714  00CA               	movwf	main@aux^(0+128)
  3212     0715  0821               	movf	(??_main+1)^(0+128),w
  3213     0716  1803               	skipnc
  3214     0717  3E01               	addlw	1
  3215     0718  3E00               	addlw	0
  3216     0719  00CB               	movwf	(main@aux+1)^(0+128)
  3217     071A  2EFB               	goto	l3828
  3218     071B                     l3834:
  3219                           
  3220                           ;main.c: 276:                 lcd_setCursor(1,1);
  3221     071B  01F6               	clrf	lcd_setCursor@col
  3222     071C  0AF6               	incf	lcd_setCursor@col,f
  3223     071D  3001               	movlw	1
  3224     071E  160A  118A  223F  120A  118A  	fcall	_lcd_setCursor
  3225     0723                     l3836:
  3226                           
  3227                           ;main.c: 277:                 lcd_writeString("CHECK BIT ERROR");
  3228     0723  3001               	movlw	(low ((STR_21-__stringbase)| (0+32768)))& (0+255)
  3229     0724  160A  118A  2301  120A  118A  	fcall	_lcd_writeString
  3230     0729  2A6E               	goto	l3536
  3231     072A                     l3838:
  3232     072A  3003               	movlw	3
  3233     072B  064C               	xorwf	main@device_mode^(0+128),w
  3234     072C  1D03               	btfss	3,2
  3235     072D  2F2F               	goto	u5011
  3236     072E  2F30               	goto	u5010
  3237     072F                     u5011:
  3238     072F  2F85               	goto	l3856
  3239     0730                     u5010:
  3240     0730                     l3840:
  3241                           
  3242                           ;main.c: 283:             lcd_setCursor(1,5);
  3243     0730  3005               	movlw	5
  3244     0731  00F6               	movwf	lcd_setCursor@col
  3245     0732  3001               	movlw	1
  3246     0733  160A  118A  223F  120A  118A  	fcall	_lcd_setCursor
  3247     0738                     l3842:
  3248                           
  3249                           ;main.c: 284:             lcd_writeString("ANALOGIC");
  3250     0738  3029               	movlw	(low ((STR_22-__stringbase)| (0+32768)))& (0+255)
  3251     0739  160A  118A  2301  120A  118A  	fcall	_lcd_writeString
  3252     073E                     l3844:
  3253                           
  3254                           ;main.c: 286:             lcd_setCursor(2,1);
  3255     073E  01F6               	clrf	lcd_setCursor@col
  3256     073F  0AF6               	incf	lcd_setCursor@col,f
  3257     0740  3002               	movlw	2
  3258     0741  160A  118A  223F  120A  118A  	fcall	_lcd_setCursor
  3259                           
  3260                           ;main.c: 287:             lcd_writeString("Temp=");
  3261     0746  3068               	movlw	(low ((STR_19-__stringbase)| (0+32768)))& (0+255)
  3262     0747  160A  118A  2301  120A  118A  	fcall	_lcd_writeString
  3263     074C                     l3846:
  3264                           
  3265                           ;main.c: 288:             LM35_initADC();
  3266     074C  160A  118A  2175  120A  118A  	fcall	_LM35_initADC
  3267     0751                     l3848:
  3268                           
  3269                           ;main.c: 289:             printInteger(LM35_readData());
  3270     0751  120A  158A  2017  120A  118A  	fcall	_LM35_readData
  3271     0756  1283               	bcf	3,5	;RP0=0, select bank0
  3272     0757  1303               	bcf	3,6	;RP1=0, select bank0
  3273     0758  085D               	movf	?_LM35_readData+1,w
  3274     0759  00EA               	movwf	printInteger@num+1
  3275     075A  085C               	movf	?_LM35_readData,w
  3276     075B  00E9               	movwf	printInteger@num
  3277     075C  160A  118A  25C2  120A  118A  	fcall	_printInteger
  3278     0761                     l3850:
  3279                           
  3280                           ;main.c: 291:             lcd_setCursor(2,11);
  3281     0761  300B               	movlw	11
  3282     0762  00F6               	movwf	lcd_setCursor@col
  3283     0763  3002               	movlw	2
  3284     0764  160A  118A  223F  120A  118A  	fcall	_lcd_setCursor
  3285     0769                     l3852:
  3286                           
  3287                           ;main.c: 292:             lcd_writeString("Hum=");
  3288     0769  306E               	movlw	(low ((STR_20-__stringbase)| (0+32768)))& (0+255)
  3289     076A  160A  118A  2301  120A  118A  	fcall	_lcd_writeString
  3290                           
  3291                           ;main.c: 293:             HIH5030_initADC();
  3292     076F  160A  118A  216A  120A  118A  	fcall	_HIH5030_initADC
  3293     0774                     l3854:
  3294                           
  3295                           ;main.c: 294:             printInteger(HIH5030_readData());
  3296     0774  120A  158A  2178  120A  118A  	fcall	_HIH5030_readData
  3297     0779  1283               	bcf	3,5	;RP0=0, select bank0
  3298     077A  1303               	bcf	3,6	;RP1=0, select bank0
  3299     077B  085D               	movf	?_HIH5030_readData+1,w
  3300     077C  00EA               	movwf	printInteger@num+1
  3301     077D  085C               	movf	?_HIH5030_readData,w
  3302     077E  00E9               	movwf	printInteger@num
  3303     077F  160A  118A  25C2  120A  118A  	fcall	_printInteger
  3304                           
  3305                           ;main.c: 295:         }
  3306     0784  2A6E               	goto	l3536
  3307     0785                     l3856:
  3308     0785  3004               	movlw	4
  3309     0786  064C               	xorwf	main@device_mode^(0+128),w
  3310     0787  1D03               	btfss	3,2
  3311     0788  2F8A               	goto	u5021
  3312     0789  2F8B               	goto	u5020
  3313     078A                     u5021:
  3314     078A  2A6E               	goto	l3536
  3315     078B                     u5020:
  3316     078B                     l3858:
  3317                           
  3318                           ;main.c: 298:             lcd_setCursor(1,5);
  3319     078B  3005               	movlw	5
  3320     078C  00F6               	movwf	lcd_setCursor@col
  3321     078D  3001               	movlw	1
  3322     078E  160A  118A  223F  120A  118A  	fcall	_lcd_setCursor
  3323     0793                     l3860:
  3324                           
  3325                           ;main.c: 299:             lcd_writeString("LDR MODE");
  3326     0793  3032               	movlw	(low ((STR_25-__stringbase)| (0+32768)))& (0+255)
  3327     0794  160A  118A  2301  120A  118A  	fcall	_lcd_writeString
  3328     0799                     l3862:
  3329                           
  3330                           ;main.c: 301:             LDR1_initADC();
  3331     0799  160A  118A  218B  120A  118A  	fcall	_LDR1_initADC
  3332     079E                     l3864:
  3333                           
  3334                           ;main.c: 302:             if(LDR1_readData() > 150){
  3335     079E  160A  118A  2369  120A  118A  	fcall	_LDR1_readData
  3336     07A3  0879               	movf	?_LDR1_readData+1,w
  3337     07A4  3A80               	xorlw	128
  3338     07A5  00FF               	movwf	btemp+1
  3339     07A6  3080               	movlw	128
  3340     07A7  027F               	subwf	btemp+1,w
  3341     07A8  1D03               	skipz
  3342     07A9  2FAC               	goto	u5035
  3343     07AA  3097               	movlw	151
  3344     07AB  0278               	subwf	?_LDR1_readData,w
  3345     07AC                     u5035:
  3346     07AC  1C03               	skipc
  3347     07AD  2FAF               	goto	u5031
  3348     07AE  2FB0               	goto	u5030
  3349     07AF                     u5031:
  3350     07AF  2FC2               	goto	l3872
  3351     07B0                     u5030:
  3352     07B0                     l3866:
  3353                           
  3354                           ;main.c: 303:                 lcd_setCursor(2,1);
  3355     07B0  01F6               	clrf	lcd_setCursor@col
  3356     07B1  0AF6               	incf	lcd_setCursor@col,f
  3357     07B2  3002               	movlw	2
  3358     07B3  160A  118A  223F  120A  118A  	fcall	_lcd_setCursor
  3359     07B8                     l3868:
  3360                           
  3361                           ;main.c: 304:                 lcd_writeString("LED OFF");
  3362     07B8  3043               	movlw	(low ((STR_26-__stringbase)| (0+32768)))& (0+255)
  3363     07B9  160A  118A  2301  120A  118A  	fcall	_lcd_writeString
  3364     07BE                     l3870:
  3365                           
  3366                           ;main.c: 305:                 PORTDbits.RD1 &= 0;
  3367     07BE  1283               	bcf	3,5	;RP0=0, select bank0
  3368     07BF  1303               	bcf	3,6	;RP1=0, select bank0
  3369     07C0  1088               	bcf	8,1	;volatile
  3370                           
  3371                           ;main.c: 306:             }
  3372     07C1  2A6E               	goto	l3536
  3373     07C2                     l3872:
  3374                           
  3375                           ;main.c: 308:                 lcd_setCursor(2,1);
  3376     07C2  01F6               	clrf	lcd_setCursor@col
  3377     07C3  0AF6               	incf	lcd_setCursor@col,f
  3378     07C4  3002               	movlw	2
  3379     07C5  160A  118A  223F  120A  118A  	fcall	_lcd_setCursor
  3380     07CA                     l3874:
  3381                           
  3382                           ;main.c: 309:                 lcd_writeString("LED  ON");
  3383     07CA  3053               	movlw	(low ((STR_27-__stringbase)| (0+32768)))& (0+255)
  3384     07CB  160A  118A  2301  120A  118A  	fcall	_lcd_writeString
  3385     07D0                     l3876:
  3386                           
  3387                           ;main.c: 310:                 PORTDbits.RD1 |= 1;
  3388     07D0  1283               	bcf	3,5	;RP0=0, select bank0
  3389     07D1  1303               	bcf	3,6	;RP1=0, select bank0
  3390     07D2  1488               	bsf	8,1	;volatile
  3391     07D3  2A6E               	goto	l3536
  3392     07D4  120A  118A  2800   	ljmp	start
  3393     07D7                     __end_of_main:
  3394                           
  3395                           	psect	text1
  3396     140B                     __ptext1:	
  3397 ;; *************** function _rtc_readTime *****************
  3398 ;; Defined at:
  3399 ;;		line 15 in file "rtc.c"
  3400 ;; Parameters:    Size  Location     Type
  3401 ;;  clock_addres    1    wreg     unsigned char 
  3402 ;; Auto vars:     Size  Location     Type
  3403 ;;  clock_addres    1    4[COMMON] unsigned char 
  3404 ;; Return value:  Size  Location     Type
  3405 ;;                  1    wreg      void 
  3406 ;; Registers used:
  3407 ;;		wreg, fsr0l, fsr0h, status,2, status,0, pclath, cstack
  3408 ;; Tracked objects:
  3409 ;;		On entry : 0/0
  3410 ;;		On exit  : 0/0
  3411 ;;		Unchanged: 0/0
  3412 ;; Data sizes:     COMMON   BANK0   BANK1   BANK3   BANK2
  3413 ;;      Params:         0       0       0       0       0
  3414 ;;      Locals:         1       0       0       0       0
  3415 ;;      Temps:          2       0       0       0       0
  3416 ;;      Totals:         3       0       0       0       0
  3417 ;;Total ram usage:        3 bytes
  3418 ;; Hardware stack levels used: 1
  3419 ;; Hardware stack levels required when called: 2
  3420 ;; This function calls:
  3421 ;;		_i2c_masterRepeatedStart
  3422 ;;		_i2c_masterStart
  3423 ;;		_i2c_masterStop
  3424 ;;		_i2c_masterWrite
  3425 ;;		_i2c_readByte
  3426 ;; This function is called by:
  3427 ;;		_main
  3428 ;; This function uses a non-reentrant model
  3429 ;;
  3430                           
  3431     140B                     _rtc_readTime:	
  3432                           ;psect for function _rtc_readTime
  3433                           
  3434                           
  3435                           ;incstack = 0
  3436                           ; Regs used in _rtc_readTime: [wreg-fsr0h+status,2+status,0+pclath+cstack]
  3437                           ;rtc_readTime@clock_address stored from wreg
  3438     140B  00F4               	movwf	rtc_readTime@clock_address
  3439     140C                     l3332:
  3440                           
  3441                           ;rtc.c: 16:     i2c_masterStart();
  3442     140C  160A  118A  214F  160A  118A  	fcall	_i2c_masterStart
  3443                           
  3444                           ;rtc.c: 17:     i2c_masterWrite(0xD0);
  3445     1411  30D0               	movlw	208
  3446     1412  160A  118A  2180  160A  118A  	fcall	_i2c_masterWrite
  3447                           
  3448                           ;rtc.c: 18:     i2c_masterWrite(clock_address);
  3449     1417  0874               	movf	rtc_readTime@clock_address,w
  3450     1418  160A  118A  2180  160A  118A  	fcall	_i2c_masterWrite
  3451                           
  3452                           ;rtc.c: 19:     i2c_masterRepeatedStart();
  3453     141D  160A  118A  2161  160A  118A  	fcall	_i2c_masterRepeatedStart
  3454                           
  3455                           ;rtc.c: 20:     i2c_masterWrite(0xD1);
  3456     1422  30D1               	movlw	209
  3457     1423  160A  118A  2180  160A  118A  	fcall	_i2c_masterWrite
  3458                           
  3459                           ;rtc.c: 22:     switch (clock_address){
  3460     1428  2C56               	goto	l3342
  3461     1429                     l3334:
  3462                           
  3463                           ;rtc.c: 24:             sec = i2c_readByte(0x00);
  3464     1429  3000               	movlw	0
  3465     142A  160A  118A  2295  160A  118A  	fcall	_i2c_readByte
  3466     142F  00F2               	movwf	??_rtc_readTime
  3467     1430  01F3               	clrf	??_rtc_readTime+1
  3468     1431  0872               	movf	??_rtc_readTime,w
  3469     1432  1683               	bsf	3,5	;RP0=1, select bank1
  3470     1433  1303               	bcf	3,6	;RP1=0, select bank1
  3471     1434  00E4               	movwf	_sec^(0+128)
  3472     1435  0873               	movf	??_rtc_readTime+1,w
  3473     1436  00E5               	movwf	(_sec+1)^(0+128)
  3474                           
  3475                           ;rtc.c: 25:             break;
  3476     1437  2C69               	goto	l3344
  3477     1438                     l3336:
  3478                           
  3479                           ;rtc.c: 28:             min = i2c_readByte(0x01);
  3480     1438  3001               	movlw	1
  3481     1439  160A  118A  2295  160A  118A  	fcall	_i2c_readByte
  3482     143E  00F2               	movwf	??_rtc_readTime
  3483     143F  01F3               	clrf	??_rtc_readTime+1
  3484     1440  0872               	movf	??_rtc_readTime,w
  3485     1441  1683               	bsf	3,5	;RP0=1, select bank1
  3486     1442  1303               	bcf	3,6	;RP1=0, select bank1
  3487     1443  00E2               	movwf	_min^(0+128)
  3488     1444  0873               	movf	??_rtc_readTime+1,w
  3489     1445  00E3               	movwf	(_min+1)^(0+128)
  3490                           
  3491                           ;rtc.c: 29:             break;
  3492     1446  2C69               	goto	l3344
  3493     1447                     l3338:
  3494                           
  3495                           ;rtc.c: 32:             hour = i2c_readByte(0x02);
  3496     1447  3002               	movlw	2
  3497     1448  160A  118A  2295  160A  118A  	fcall	_i2c_readByte
  3498     144D  00F2               	movwf	??_rtc_readTime
  3499     144E  01F3               	clrf	??_rtc_readTime+1
  3500     144F  0872               	movf	??_rtc_readTime,w
  3501     1450  1683               	bsf	3,5	;RP0=1, select bank1
  3502     1451  1303               	bcf	3,6	;RP1=0, select bank1
  3503     1452  00E0               	movwf	_hour^(0+128)
  3504     1453  0873               	movf	??_rtc_readTime+1,w
  3505     1454  00E1               	movwf	(_hour+1)^(0+128)
  3506                           
  3507                           ;rtc.c: 33:             break;
  3508     1455  2C69               	goto	l3344
  3509     1456                     l3342:
  3510     1456  0874               	movf	rtc_readTime@clock_address,w
  3511     1457  00F2               	movwf	??_rtc_readTime
  3512     1458  01F3               	clrf	??_rtc_readTime+1
  3513                           
  3514                           ; Switch on 2 bytes has been partitioned into a top level switch of size 1, and 1 sub-sw
      +                          itches
  3515                           ; Switch size 1, requested type "simple"
  3516                           ; Number of cases is 1, Range of values is 0 to 0
  3517                           ; switch strategies available:
  3518                           ; Name         Instructions Cycles
  3519                           ; simple_byte            4     3 (average)
  3520                           ; direct_byte           11     8 (fixed)
  3521                           ; jumptable            260     6 (fixed)
  3522                           ;	Chosen strategy is simple_byte
  3523     1459  0873               	movf	??_rtc_readTime+1,w
  3524     145A  3A00               	xorlw	0	; case 0
  3525     145B  1903               	skipnz
  3526     145C  2C5E               	goto	l3956
  3527     145D  2C69               	goto	l3344
  3528     145E                     l3956:
  3529                           
  3530                           ; Switch size 1, requested type "simple"
  3531                           ; Number of cases is 3, Range of values is 0 to 2
  3532                           ; switch strategies available:
  3533                           ; Name         Instructions Cycles
  3534                           ; simple_byte           10     6 (average)
  3535                           ; direct_byte           17     8 (fixed)
  3536                           ; jumptable            260     6 (fixed)
  3537                           ;	Chosen strategy is simple_byte
  3538     145E  0872               	movf	??_rtc_readTime,w
  3539     145F  3A00               	xorlw	0	; case 0
  3540     1460  1903               	skipnz
  3541     1461  2C29               	goto	l3334
  3542     1462  3A01               	xorlw	1	; case 1
  3543     1463  1903               	skipnz
  3544     1464  2C38               	goto	l3336
  3545     1465  3A03               	xorlw	3	; case 2
  3546     1466  1903               	skipnz
  3547     1467  2C47               	goto	l3338
  3548     1468  2C69               	goto	l3344
  3549     1469                     l3344:
  3550                           
  3551                           ;rtc.c: 38:     i2c_masterStop();
  3552     1469  160A  118A  2158  160A  118A  	fcall	_i2c_masterStop
  3553     146E                     l316:
  3554     146E  0008               	return
  3555     146F                     __end_of_rtc_readTime:
  3556                           
  3557                           	psect	text2
  3558     154C                     __ptext2:	
  3559 ;; *************** function _rtc_readDate *****************
  3560 ;; Defined at:
  3561 ;;		line 41 in file "rtc.c"
  3562 ;; Parameters:    Size  Location     Type
  3563 ;;  calendar_add    1    wreg     unsigned char 
  3564 ;; Auto vars:     Size  Location     Type
  3565 ;;  calendar_add    1    4[COMMON] unsigned char 
  3566 ;; Return value:  Size  Location     Type
  3567 ;;                  1    wreg      void 
  3568 ;; Registers used:
  3569 ;;		wreg, fsr0l, fsr0h, status,2, status,0, pclath, cstack
  3570 ;; Tracked objects:
  3571 ;;		On entry : 0/0
  3572 ;;		On exit  : 0/0
  3573 ;;		Unchanged: 0/0
  3574 ;; Data sizes:     COMMON   BANK0   BANK1   BANK3   BANK2
  3575 ;;      Params:         0       0       0       0       0
  3576 ;;      Locals:         1       0       0       0       0
  3577 ;;      Temps:          2       0       0       0       0
  3578 ;;      Totals:         3       0       0       0       0
  3579 ;;Total ram usage:        3 bytes
  3580 ;; Hardware stack levels used: 1
  3581 ;; Hardware stack levels required when called: 2
  3582 ;; This function calls:
  3583 ;;		_i2c_masterRepeatedStart
  3584 ;;		_i2c_masterStart
  3585 ;;		_i2c_masterStop
  3586 ;;		_i2c_masterWrite
  3587 ;;		_i2c_readByte
  3588 ;; This function is called by:
  3589 ;;		_main
  3590 ;; This function uses a non-reentrant model
  3591 ;;
  3592                           
  3593     154C                     _rtc_readDate:	
  3594                           ;psect for function _rtc_readDate
  3595                           
  3596                           
  3597                           ;incstack = 0
  3598                           ; Regs used in _rtc_readDate: [wreg-fsr0h+status,2+status,0+pclath+cstack]
  3599                           ;rtc_readDate@calendar_address stored from wreg
  3600     154C  00F4               	movwf	rtc_readDate@calendar_address
  3601     154D                     l3358:
  3602                           
  3603                           ;rtc.c: 42:     i2c_masterStart();
  3604     154D  160A  118A  214F  160A  118A  	fcall	_i2c_masterStart
  3605                           
  3606                           ;rtc.c: 43:     i2c_masterWrite(0xD0);
  3607     1552  30D0               	movlw	208
  3608     1553  160A  118A  2180  160A  118A  	fcall	_i2c_masterWrite
  3609                           
  3610                           ;rtc.c: 44:     i2c_masterWrite(calendar_address);
  3611     1558  0874               	movf	rtc_readDate@calendar_address,w
  3612     1559  160A  118A  2180  160A  118A  	fcall	_i2c_masterWrite
  3613                           
  3614                           ;rtc.c: 45:     i2c_masterRepeatedStart();
  3615     155E  160A  118A  2161  160A  118A  	fcall	_i2c_masterRepeatedStart
  3616                           
  3617                           ;rtc.c: 46:     i2c_masterWrite(0xD1);
  3618     1563  30D1               	movlw	209
  3619     1564  160A  118A  2180  160A  118A  	fcall	_i2c_masterWrite
  3620                           
  3621                           ;rtc.c: 48:     switch (calendar_address){
  3622     1569  2DA6               	goto	l3370
  3623     156A                     l3360:
  3624                           
  3625                           ;rtc.c: 50:             day = i2c_readByte(0x03);
  3626     156A  3003               	movlw	3
  3627     156B  160A  118A  2295  160A  118A  	fcall	_i2c_readByte
  3628     1570  00F2               	movwf	??_rtc_readDate
  3629     1571  01F3               	clrf	??_rtc_readDate+1
  3630     1572  0872               	movf	??_rtc_readDate,w
  3631     1573  1683               	bsf	3,5	;RP0=1, select bank1
  3632     1574  1303               	bcf	3,6	;RP1=0, select bank1
  3633     1575  00DE               	movwf	_day^(0+128)
  3634     1576  0873               	movf	??_rtc_readDate+1,w
  3635     1577  00DF               	movwf	(_day+1)^(0+128)
  3636                           
  3637                           ;rtc.c: 51:             break;
  3638     1578  2DBC               	goto	l3372
  3639     1579                     l3362:
  3640                           
  3641                           ;rtc.c: 54:             date = i2c_readByte(0x04);
  3642     1579  3004               	movlw	4
  3643     157A  160A  118A  2295  160A  118A  	fcall	_i2c_readByte
  3644     157F  00F2               	movwf	??_rtc_readDate
  3645     1580  01F3               	clrf	??_rtc_readDate+1
  3646     1581  0872               	movf	??_rtc_readDate,w
  3647     1582  1683               	bsf	3,5	;RP0=1, select bank1
  3648     1583  1303               	bcf	3,6	;RP1=0, select bank1
  3649     1584  00DC               	movwf	_date^(0+128)
  3650     1585  0873               	movf	??_rtc_readDate+1,w
  3651     1586  00DD               	movwf	(_date+1)^(0+128)
  3652                           
  3653                           ;rtc.c: 55:             break;
  3654     1587  2DBC               	goto	l3372
  3655     1588                     l3364:
  3656                           
  3657                           ;rtc.c: 58:             month = i2c_readByte(0x05);
  3658     1588  3005               	movlw	5
  3659     1589  160A  118A  2295  160A  118A  	fcall	_i2c_readByte
  3660     158E  00F2               	movwf	??_rtc_readDate
  3661     158F  01F3               	clrf	??_rtc_readDate+1
  3662     1590  0872               	movf	??_rtc_readDate,w
  3663     1591  1683               	bsf	3,5	;RP0=1, select bank1
  3664     1592  1303               	bcf	3,6	;RP1=0, select bank1
  3665     1593  00DA               	movwf	_month^(0+128)
  3666     1594  0873               	movf	??_rtc_readDate+1,w
  3667     1595  00DB               	movwf	(_month+1)^(0+128)
  3668                           
  3669                           ;rtc.c: 59:             break;
  3670     1596  2DBC               	goto	l3372
  3671     1597                     l3366:
  3672                           
  3673                           ;rtc.c: 62:             year = i2c_readByte(0x06);
  3674     1597  3006               	movlw	6
  3675     1598  160A  118A  2295  160A  118A  	fcall	_i2c_readByte
  3676     159D  00F2               	movwf	??_rtc_readDate
  3677     159E  01F3               	clrf	??_rtc_readDate+1
  3678     159F  0872               	movf	??_rtc_readDate,w
  3679     15A0  1683               	bsf	3,5	;RP0=1, select bank1
  3680     15A1  1303               	bcf	3,6	;RP1=0, select bank1
  3681     15A2  00D8               	movwf	_year^(0+128)
  3682     15A3  0873               	movf	??_rtc_readDate+1,w
  3683     15A4  00D9               	movwf	(_year+1)^(0+128)
  3684                           
  3685                           ;rtc.c: 63:             break;
  3686     15A5  2DBC               	goto	l3372
  3687     15A6                     l3370:
  3688     15A6  0874               	movf	rtc_readDate@calendar_address,w
  3689     15A7  00F2               	movwf	??_rtc_readDate
  3690     15A8  01F3               	clrf	??_rtc_readDate+1
  3691                           
  3692                           ; Switch on 2 bytes has been partitioned into a top level switch of size 1, and 1 sub-sw
      +                          itches
  3693                           ; Switch size 1, requested type "simple"
  3694                           ; Number of cases is 1, Range of values is 0 to 0
  3695                           ; switch strategies available:
  3696                           ; Name         Instructions Cycles
  3697                           ; simple_byte            4     3 (average)
  3698                           ; direct_byte           11     8 (fixed)
  3699                           ; jumptable            260     6 (fixed)
  3700                           ;	Chosen strategy is simple_byte
  3701     15A9  0873               	movf	??_rtc_readDate+1,w
  3702     15AA  3A00               	xorlw	0	; case 0
  3703     15AB  1903               	skipnz
  3704     15AC  2DAE               	goto	l3958
  3705     15AD  2DBC               	goto	l3372
  3706     15AE                     l3958:
  3707                           
  3708                           ; Switch size 1, requested type "simple"
  3709                           ; Number of cases is 4, Range of values is 3 to 6
  3710                           ; switch strategies available:
  3711                           ; Name         Instructions Cycles
  3712                           ; simple_byte           13     7 (average)
  3713                           ; direct_byte           23    11 (fixed)
  3714                           ; jumptable            263     9 (fixed)
  3715                           ;	Chosen strategy is simple_byte
  3716     15AE  0872               	movf	??_rtc_readDate,w
  3717     15AF  3A03               	xorlw	3	; case 3
  3718     15B0  1903               	skipnz
  3719     15B1  2D6A               	goto	l3360
  3720     15B2  3A07               	xorlw	7	; case 4
  3721     15B3  1903               	skipnz
  3722     15B4  2D79               	goto	l3362
  3723     15B5  3A01               	xorlw	1	; case 5
  3724     15B6  1903               	skipnz
  3725     15B7  2D88               	goto	l3364
  3726     15B8  3A03               	xorlw	3	; case 6
  3727     15B9  1903               	skipnz
  3728     15BA  2D97               	goto	l3366
  3729     15BB  2DBC               	goto	l3372
  3730     15BC                     l3372:
  3731                           
  3732                           ;rtc.c: 68:     i2c_masterStop();
  3733     15BC  160A  118A  2158  160A  118A  	fcall	_i2c_masterStop
  3734     15C1                     l326:
  3735     15C1  0008               	return
  3736     15C2                     __end_of_rtc_readDate:
  3737                           
  3738                           	psect	text3
  3739     1295                     __ptext3:	
  3740 ;; *************** function _i2c_readByte *****************
  3741 ;; Defined at:
  3742 ;;		line 50 in file "i2c.c"
  3743 ;; Parameters:    Size  Location     Type
  3744 ;;  ack             1    wreg     unsigned char 
  3745 ;; Auto vars:     Size  Location     Type
  3746 ;;  ack             1    0[COMMON] unsigned char 
  3747 ;;  incoming_dat    1    1[COMMON] unsigned char 
  3748 ;; Return value:  Size  Location     Type
  3749 ;;                  1    wreg      unsigned char 
  3750 ;; Registers used:
  3751 ;;		wreg, status,2, status,0, pclath, cstack
  3752 ;; Tracked objects:
  3753 ;;		On entry : 0/0
  3754 ;;		On exit  : 0/0
  3755 ;;		Unchanged: 0/0
  3756 ;; Data sizes:     COMMON   BANK0   BANK1   BANK3   BANK2
  3757 ;;      Params:         0       0       0       0       0
  3758 ;;      Locals:         2       0       0       0       0
  3759 ;;      Temps:          0       0       0       0       0
  3760 ;;      Totals:         2       0       0       0       0
  3761 ;;Total ram usage:        2 bytes
  3762 ;; Hardware stack levels used: 1
  3763 ;; Hardware stack levels required when called: 1
  3764 ;; This function calls:
  3765 ;;		_i2c_masterWait
  3766 ;; This function is called by:
  3767 ;;		_rtc_readTime
  3768 ;;		_rtc_readDate
  3769 ;; This function uses a non-reentrant model
  3770 ;;
  3771                           
  3772     1295                     _i2c_readByte:	
  3773                           ;psect for function _i2c_readByte
  3774                           
  3775                           
  3776                           ;incstack = 0
  3777                           ; Regs used in _i2c_readByte: [wreg+status,2+status,0+pclath+cstack]
  3778                           ;i2c_readByte@ack stored from wreg
  3779     1295  00F0               	movwf	i2c_readByte@ack
  3780     1296                     l2846:
  3781                           
  3782                           ;i2c.c: 51:     uint8_t incoming_data;;i2c.c: 52:     i2c_masterWait();
  3783     1296  160A  118A  21BB  160A  118A  	fcall	_i2c_masterWait
  3784     129B                     l2848:
  3785                           
  3786                           ;i2c.c: 53:     SSPCON2bits.RCEN |= 1;
  3787     129B  1683               	bsf	3,5	;RP0=1, select bank1
  3788     129C  1303               	bcf	3,6	;RP1=0, select bank1
  3789     129D  1591               	bsf	17,3	;volatile
  3790                           
  3791                           ;i2c.c: 55:     i2c_masterWait();
  3792     129E  160A  118A  21BB  160A  118A  	fcall	_i2c_masterWait
  3793     12A3                     l2850:
  3794                           
  3795                           ;i2c.c: 56:     incoming_data = SSPBUF;
  3796     12A3  1283               	bcf	3,5	;RP0=0, select bank0
  3797     12A4  1303               	bcf	3,6	;RP1=0, select bank0
  3798     12A5  0813               	movf	19,w	;volatile
  3799     12A6  00F1               	movwf	i2c_readByte@incoming_data
  3800     12A7                     l2852:
  3801                           
  3802                           ;i2c.c: 58:     i2c_masterWait();
  3803     12A7  160A  118A  21BB  160A  118A  	fcall	_i2c_masterWait
  3804     12AC                     l2854:
  3805                           
  3806                           ;i2c.c: 59:     SSPCON2bits.ACKDT |= (ack)?0:1;
  3807     12AC  0870               	movf	i2c_readByte@ack,w
  3808     12AD  1903               	btfsc	3,2
  3809     12AE  2AB0               	goto	u3341
  3810     12AF  2AB3               	goto	u3340
  3811     12B0                     u3341:
  3812     12B0  1683               	bsf	3,5	;RP0=1, select bank1
  3813     12B1  1303               	bcf	3,6	;RP1=0, select bank1
  3814     12B2  1691               	bsf	17,5	;volatile
  3815     12B3                     u3340:
  3816     12B3                     l2856:
  3817                           
  3818                           ;i2c.c: 60:     SSPCON2bits.ACKEN |= 1;
  3819     12B3  1683               	bsf	3,5	;RP0=1, select bank1
  3820     12B4  1303               	bcf	3,6	;RP1=0, select bank1
  3821     12B5  1611               	bsf	17,4	;volatile
  3822     12B6                     l2858:
  3823                           
  3824                           ;i2c.c: 61:     return incoming_data;
  3825     12B6  0871               	movf	i2c_readByte@incoming_data,w
  3826     12B7                     l51:
  3827     12B7  0008               	return
  3828     12B8                     __end_of_i2c_readByte:
  3829                           
  3830                           	psect	text4
  3831     1161                     __ptext4:	
  3832 ;; *************** function _i2c_masterRepeatedStart *****************
  3833 ;; Defined at:
  3834 ;;		line 34 in file "i2c.c"
  3835 ;; Parameters:    Size  Location     Type
  3836 ;;		None
  3837 ;; Auto vars:     Size  Location     Type
  3838 ;;		None
  3839 ;; Return value:  Size  Location     Type
  3840 ;;                  1    wreg      void 
  3841 ;; Registers used:
  3842 ;;		wreg, status,2, status,0, pclath, cstack
  3843 ;; Tracked objects:
  3844 ;;		On entry : 0/0
  3845 ;;		On exit  : 0/0
  3846 ;;		Unchanged: 0/0
  3847 ;; Data sizes:     COMMON   BANK0   BANK1   BANK3   BANK2
  3848 ;;      Params:         0       0       0       0       0
  3849 ;;      Locals:         0       0       0       0       0
  3850 ;;      Temps:          0       0       0       0       0
  3851 ;;      Totals:         0       0       0       0       0
  3852 ;;Total ram usage:        0 bytes
  3853 ;; Hardware stack levels used: 1
  3854 ;; Hardware stack levels required when called: 1
  3855 ;; This function calls:
  3856 ;;		_i2c_masterWait
  3857 ;; This function is called by:
  3858 ;;		_rtc_readTime
  3859 ;;		_rtc_readDate
  3860 ;; This function uses a non-reentrant model
  3861 ;;
  3862                           
  3863     1161                     _i2c_masterRepeatedStart:	
  3864                           ;psect for function _i2c_masterRepeatedStart
  3865                           
  3866     1161                     l2842:	
  3867                           ;incstack = 0
  3868                           ; Regs used in _i2c_masterRepeatedStart: [wreg+status,2+status,0+pclath+cstack]
  3869                           
  3870                           
  3871                           ;i2c.c: 35:     i2c_masterWait();
  3872     1161  160A  118A  21BB  160A  118A  	fcall	_i2c_masterWait
  3873     1166                     l2844:
  3874                           
  3875                           ;i2c.c: 36:     SSPCON2bits.RSEN |= 1;
  3876     1166  1683               	bsf	3,5	;RP0=1, select bank1
  3877     1167  1303               	bcf	3,6	;RP1=0, select bank1
  3878     1168  1491               	bsf	17,1	;volatile
  3879     1169                     l42:
  3880     1169  0008               	return
  3881     116A                     __end_of_i2c_masterRepeatedStart:
  3882                           
  3883                           	psect	text5
  3884     11AF                     __ptext5:	
  3885 ;; *************** function _rtc_convUpperNibble *****************
  3886 ;; Defined at:
  3887 ;;		line 7 in file "rtc.c"
  3888 ;; Parameters:    Size  Location     Type
  3889 ;;  digit           1    wreg     unsigned char 
  3890 ;; Auto vars:     Size  Location     Type
  3891 ;;  digit           1    1[COMMON] unsigned char 
  3892 ;; Return value:  Size  Location     Type
  3893 ;;                  1    wreg      unsigned char 
  3894 ;; Registers used:
  3895 ;;		wreg, status,2, status,0
  3896 ;; Tracked objects:
  3897 ;;		On entry : 0/0
  3898 ;;		On exit  : 0/0
  3899 ;;		Unchanged: 0/0
  3900 ;; Data sizes:     COMMON   BANK0   BANK1   BANK3   BANK2
  3901 ;;      Params:         0       0       0       0       0
  3902 ;;      Locals:         1       0       0       0       0
  3903 ;;      Temps:          1       0       0       0       0
  3904 ;;      Totals:         2       0       0       0       0
  3905 ;;Total ram usage:        2 bytes
  3906 ;; Hardware stack levels used: 1
  3907 ;; This function calls:
  3908 ;;		Nothing
  3909 ;; This function is called by:
  3910 ;;		_main
  3911 ;; This function uses a non-reentrant model
  3912 ;;
  3913                           
  3914     11AF                     _rtc_convUpperNibble:	
  3915                           ;psect for function _rtc_convUpperNibble
  3916                           
  3917                           
  3918                           ;incstack = 0
  3919                           ; Regs used in _rtc_convUpperNibble: [wreg+status,2+status,0]
  3920                           ;rtc_convUpperNibble@digit stored from wreg
  3921     11AF  00F1               	movwf	rtc_convUpperNibble@digit
  3922     11B0                     l3350:
  3923                           
  3924                           ;rtc.c: 8:     return ((digit >> 4) + 48);
  3925     11B0  0871               	movf	rtc_convUpperNibble@digit,w
  3926     11B1  00F0               	movwf	??_rtc_convUpperNibble
  3927     11B2  3004               	movlw	4
  3928     11B3                     u4335:
  3929     11B3  1003               	clrc
  3930     11B4  0CF0               	rrf	??_rtc_convUpperNibble,f
  3931     11B5  3EFF               	addlw	-1
  3932     11B6  1D03               	skipz
  3933     11B7  29B3               	goto	u4335
  3934     11B8  0870               	movf	??_rtc_convUpperNibble,w
  3935     11B9  3E30               	addlw	48
  3936     11BA                     l304:
  3937     11BA  0008               	return
  3938     11BB                     __end_of_rtc_convUpperNibble:
  3939                           
  3940                           	psect	text6
  3941     113D                     __ptext6:	
  3942 ;; *************** function _rtc_convLowerNibble *****************
  3943 ;; Defined at:
  3944 ;;		line 11 in file "rtc.c"
  3945 ;; Parameters:    Size  Location     Type
  3946 ;;  digit           1    wreg     unsigned char 
  3947 ;; Auto vars:     Size  Location     Type
  3948 ;;  digit           1    0[COMMON] unsigned char 
  3949 ;; Return value:  Size  Location     Type
  3950 ;;                  1    wreg      unsigned char 
  3951 ;; Registers used:
  3952 ;;		wreg, status,2, status,0
  3953 ;; Tracked objects:
  3954 ;;		On entry : 0/0
  3955 ;;		On exit  : 0/0
  3956 ;;		Unchanged: 0/0
  3957 ;; Data sizes:     COMMON   BANK0   BANK1   BANK3   BANK2
  3958 ;;      Params:         0       0       0       0       0
  3959 ;;      Locals:         1       0       0       0       0
  3960 ;;      Temps:          0       0       0       0       0
  3961 ;;      Totals:         1       0       0       0       0
  3962 ;;Total ram usage:        1 bytes
  3963 ;; Hardware stack levels used: 1
  3964 ;; This function calls:
  3965 ;;		Nothing
  3966 ;; This function is called by:
  3967 ;;		_main
  3968 ;; This function uses a non-reentrant model
  3969 ;;
  3970                           
  3971     113D                     _rtc_convLowerNibble:	
  3972                           ;psect for function _rtc_convLowerNibble
  3973                           
  3974                           
  3975                           ;incstack = 0
  3976                           ; Regs used in _rtc_convLowerNibble: [wreg+status,2+status,0]
  3977                           ;rtc_convLowerNibble@digit stored from wreg
  3978     113D  00F0               	movwf	rtc_convLowerNibble@digit
  3979     113E                     l3354:
  3980                           
  3981                           ;rtc.c: 12:     return ((digit & 0x0F) + 48);
  3982     113E  0870               	movf	rtc_convLowerNibble@digit,w
  3983     113F  390F               	andlw	15
  3984     1140  3E30               	addlw	48
  3985     1141                     l307:
  3986     1141  0008               	return
  3987     1142                     __end_of_rtc_convLowerNibble:
  3988                           
  3989                           	psect	text7
  3990     15C2                     __ptext7:	
  3991 ;; *************** function _printInteger *****************
  3992 ;; Defined at:
  3993 ;;		line 150 in file "i2c.c"
  3994 ;; Parameters:    Size  Location     Type
  3995 ;;  num             2   73[BANK0 ] int 
  3996 ;; Auto vars:     Size  Location     Type
  3997 ;;  divisor         2   77[BANK0 ] int 
  3998 ;;  cifra           2   75[BANK0 ] int 
  3999 ;; Return value:  Size  Location     Type
  4000 ;;                  1    wreg      void 
  4001 ;; Registers used:
  4002 ;;		wreg, status,2, status,0, btemp+1, pclath, cstack
  4003 ;; Tracked objects:
  4004 ;;		On entry : 0/0
  4005 ;;		On exit  : 0/0
  4006 ;;		Unchanged: 0/0
  4007 ;; Data sizes:     COMMON   BANK0   BANK1   BANK3   BANK2
  4008 ;;      Params:         0       2       0       0       0
  4009 ;;      Locals:         0       4       0       0       0
  4010 ;;      Temps:          0       0       0       0       0
  4011 ;;      Totals:         0       6       0       0       0
  4012 ;;Total ram usage:        6 bytes
  4013 ;; Hardware stack levels used: 1
  4014 ;; Hardware stack levels required when called: 5
  4015 ;; This function calls:
  4016 ;;		___awdiv
  4017 ;;		___awmod
  4018 ;;		___wmul
  4019 ;;		_lcd_writeChar
  4020 ;; This function is called by:
  4021 ;;		_main
  4022 ;; This function uses a non-reentrant model
  4023 ;;
  4024                           
  4025     15C2                     _printInteger:	
  4026                           ;psect for function _printInteger
  4027                           
  4028     15C2                     l3322:	
  4029                           ;incstack = 0
  4030                           ; Regs used in _printInteger: [wreg+status,2+status,0+btemp+1+pclath+cstack]
  4031                           
  4032                           
  4033                           ;i2c.c: 151:     int cifra;;i2c.c: 152:     int divisor = 1;
  4034     15C2  3001               	movlw	1
  4035     15C3  1283               	bcf	3,5	;RP0=0, select bank0
  4036     15C4  1303               	bcf	3,6	;RP1=0, select bank0
  4037     15C5  00ED               	movwf	printInteger@divisor
  4038     15C6  3000               	movlw	0
  4039     15C7  00EE               	movwf	printInteger@divisor+1
  4040                           
  4041                           ;i2c.c: 153:     while (num / divisor >= 10) {
  4042     15C8  2DDE               	goto	l3326
  4043     15C9                     l3324:
  4044                           
  4045                           ;i2c.c: 154:         divisor *= 10;
  4046     15C9  300A               	movlw	10
  4047     15CA  00F0               	movwf	___wmul@multiplier
  4048     15CB  3000               	movlw	0
  4049     15CC  00F1               	movwf	___wmul@multiplier+1
  4050     15CD  1283               	bcf	3,5	;RP0=0, select bank0
  4051     15CE  1303               	bcf	3,6	;RP1=0, select bank0
  4052     15CF  086E               	movf	printInteger@divisor+1,w
  4053     15D0  00F3               	movwf	___wmul@multiplicand+1
  4054     15D1  086D               	movf	printInteger@divisor,w
  4055     15D2  00F2               	movwf	___wmul@multiplicand
  4056     15D3  160A  118A  22DC  160A  118A  	fcall	___wmul
  4057     15D8  0871               	movf	?___wmul+1,w
  4058     15D9  1283               	bcf	3,5	;RP0=0, select bank0
  4059     15DA  1303               	bcf	3,6	;RP1=0, select bank0
  4060     15DB  00EE               	movwf	printInteger@divisor+1
  4061     15DC  0870               	movf	?___wmul,w
  4062     15DD  00ED               	movwf	printInteger@divisor
  4063     15DE                     l3326:
  4064                           
  4065                           ;i2c.c: 153:     while (num / divisor >= 10) {
  4066     15DE  086E               	movf	printInteger@divisor+1,w
  4067     15DF  00F1               	movwf	___awdiv@divisor+1
  4068     15E0  086D               	movf	printInteger@divisor,w
  4069     15E1  00F0               	movwf	___awdiv@divisor
  4070     15E2  086A               	movf	printInteger@num+1,w
  4071     15E3  00F3               	movwf	___awdiv@dividend+1
  4072     15E4  0869               	movf	printInteger@num,w
  4073     15E5  00F2               	movwf	___awdiv@dividend
  4074     15E6  160A  118A  246F  160A  118A  	fcall	___awdiv
  4075     15EB  0871               	movf	?___awdiv+1,w
  4076     15EC  3A80               	xorlw	128
  4077     15ED  00FF               	movwf	btemp+1
  4078     15EE  3080               	movlw	128
  4079     15EF  027F               	subwf	btemp+1,w
  4080     15F0  1D03               	skipz
  4081     15F1  2DF4               	goto	u4315
  4082     15F2  300A               	movlw	10
  4083     15F3  0270               	subwf	?___awdiv,w
  4084     15F4                     u4315:
  4085     15F4  1803               	skipnc
  4086     15F5  2DF7               	goto	u4311
  4087     15F6  2DF8               	goto	u4310
  4088     15F7                     u4311:
  4089     15F7  2DC9               	goto	l3324
  4090     15F8                     u4310:
  4091     15F8  2E37               	goto	l3330
  4092     15F9                     l3328:
  4093                           
  4094                           ;i2c.c: 157:         cifra = (num / divisor) % 10;
  4095     15F9  300A               	movlw	10
  4096     15FA  00F8               	movwf	___awmod@divisor
  4097     15FB  3000               	movlw	0
  4098     15FC  00F9               	movwf	___awmod@divisor+1
  4099     15FD  1283               	bcf	3,5	;RP0=0, select bank0
  4100     15FE  1303               	bcf	3,6	;RP1=0, select bank0
  4101     15FF  086E               	movf	printInteger@divisor+1,w
  4102     1600  00F1               	movwf	___awdiv@divisor+1
  4103     1601  086D               	movf	printInteger@divisor,w
  4104     1602  00F0               	movwf	___awdiv@divisor
  4105     1603  086A               	movf	printInteger@num+1,w
  4106     1604  00F3               	movwf	___awdiv@dividend+1
  4107     1605  0869               	movf	printInteger@num,w
  4108     1606  00F2               	movwf	___awdiv@dividend
  4109     1607  160A  118A  246F  160A  118A  	fcall	___awdiv
  4110     160C  0871               	movf	?___awdiv+1,w
  4111     160D  00FB               	movwf	___awmod@dividend+1
  4112     160E  0870               	movf	?___awdiv,w
  4113     160F  00FA               	movwf	___awmod@dividend
  4114     1610  160A  118A  23B2  160A  118A  	fcall	___awmod
  4115     1615  0879               	movf	?___awmod+1,w
  4116     1616  1283               	bcf	3,5	;RP0=0, select bank0
  4117     1617  1303               	bcf	3,6	;RP1=0, select bank0
  4118     1618  00EC               	movwf	printInteger@cifra+1
  4119     1619  0878               	movf	?___awmod,w
  4120     161A  00EB               	movwf	printInteger@cifra
  4121                           
  4122                           ;i2c.c: 158:        lcd_writeChar(cifra+'0');
  4123     161B  086B               	movf	printInteger@cifra,w
  4124     161C  3E30               	addlw	48
  4125     161D  160A  118A  2278  160A  118A  	fcall	_lcd_writeChar
  4126                           
  4127                           ;i2c.c: 159:         divisor /= 10;
  4128     1622  300A               	movlw	10
  4129     1623  00F0               	movwf	___awdiv@divisor
  4130     1624  3000               	movlw	0
  4131     1625  00F1               	movwf	___awdiv@divisor+1
  4132     1626  1283               	bcf	3,5	;RP0=0, select bank0
  4133     1627  1303               	bcf	3,6	;RP1=0, select bank0
  4134     1628  086E               	movf	printInteger@divisor+1,w
  4135     1629  00F3               	movwf	___awdiv@dividend+1
  4136     162A  086D               	movf	printInteger@divisor,w
  4137     162B  00F2               	movwf	___awdiv@dividend
  4138     162C  160A  118A  246F  160A  118A  	fcall	___awdiv
  4139     1631  0871               	movf	?___awdiv+1,w
  4140     1632  1283               	bcf	3,5	;RP0=0, select bank0
  4141     1633  1303               	bcf	3,6	;RP1=0, select bank0
  4142     1634  00EE               	movwf	printInteger@divisor+1
  4143     1635  0870               	movf	?___awdiv,w
  4144     1636  00ED               	movwf	printInteger@divisor
  4145     1637                     l3330:
  4146                           
  4147                           ;i2c.c: 156:     while (divisor > 0) {
  4148     1637  1283               	bcf	3,5	;RP0=0, select bank0
  4149     1638  1303               	bcf	3,6	;RP1=0, select bank0
  4150     1639  086E               	movf	printInteger@divisor+1,w
  4151     163A  3A80               	xorlw	128
  4152     163B  00FF               	movwf	btemp+1
  4153     163C  3080               	movlw	128
  4154     163D  027F               	subwf	btemp+1,w
  4155     163E  1D03               	skipz
  4156     163F  2E42               	goto	u4325
  4157     1640  3001               	movlw	1
  4158     1641  026D               	subwf	printInteger@divisor,w
  4159     1642                     u4325:
  4160     1642  1803               	skipnc
  4161     1643  2E45               	goto	u4321
  4162     1644  2E46               	goto	u4320
  4163     1645                     u4321:
  4164     1645  2DF9               	goto	l3328
  4165     1646                     u4320:
  4166     1646                     l102:
  4167     1646  0008               	return
  4168     1647                     __end_of_printInteger:
  4169                           
  4170                           	psect	text8
  4171     13B2                     __ptext8:	
  4172 ;; *************** function ___awmod *****************
  4173 ;; Defined at:
  4174 ;;		line 5 in file "E:\XC8 Compiler\pic\sources\c90\common\awmod.c"
  4175 ;; Parameters:    Size  Location     Type
  4176 ;;  divisor         2    8[COMMON] int 
  4177 ;;  dividend        2   10[COMMON] int 
  4178 ;; Auto vars:     Size  Location     Type
  4179 ;;  sign            1   13[COMMON] unsigned char 
  4180 ;;  counter         1   12[COMMON] unsigned char 
  4181 ;; Return value:  Size  Location     Type
  4182 ;;                  2    8[COMMON] int 
  4183 ;; Registers used:
  4184 ;;		wreg, status,2, status,0, btemp+1
  4185 ;; Tracked objects:
  4186 ;;		On entry : 0/0
  4187 ;;		On exit  : 0/0
  4188 ;;		Unchanged: 0/0
  4189 ;; Data sizes:     COMMON   BANK0   BANK1   BANK3   BANK2
  4190 ;;      Params:         4       0       0       0       0
  4191 ;;      Locals:         2       0       0       0       0
  4192 ;;      Temps:          0       0       0       0       0
  4193 ;;      Totals:         6       0       0       0       0
  4194 ;;Total ram usage:        6 bytes
  4195 ;; Hardware stack levels used: 1
  4196 ;; This function calls:
  4197 ;;		Nothing
  4198 ;; This function is called by:
  4199 ;;		_printInteger
  4200 ;; This function uses a non-reentrant model
  4201 ;;
  4202                           
  4203     13B2                     ___awmod:	
  4204                           ;psect for function ___awmod
  4205                           
  4206     13B2                     l2942:	
  4207                           ;incstack = 0
  4208                           ; Regs used in ___awmod: [wreg+status,2+status,0+btemp+1]
  4209                           
  4210     13B2  01FD               	clrf	___awmod@sign
  4211     13B3                     l2944:
  4212     13B3  1FFB               	btfss	___awmod@dividend+1,7
  4213     13B4  2BB6               	goto	u3531
  4214     13B5  2BB7               	goto	u3530
  4215     13B6                     u3531:
  4216     13B6  2BBE               	goto	l2950
  4217     13B7                     u3530:
  4218     13B7                     l2946:
  4219     13B7  09FA               	comf	___awmod@dividend,f
  4220     13B8  09FB               	comf	___awmod@dividend+1,f
  4221     13B9  0AFA               	incf	___awmod@dividend,f
  4222     13BA  1903               	skipnz
  4223     13BB  0AFB               	incf	___awmod@dividend+1,f
  4224     13BC                     l2948:
  4225     13BC  01FD               	clrf	___awmod@sign
  4226     13BD  0AFD               	incf	___awmod@sign,f
  4227     13BE                     l2950:
  4228     13BE  1FF9               	btfss	___awmod@divisor+1,7
  4229     13BF  2BC1               	goto	u3541
  4230     13C0  2BC2               	goto	u3540
  4231     13C1                     u3541:
  4232     13C1  2BC7               	goto	l2954
  4233     13C2                     u3540:
  4234     13C2                     l2952:
  4235     13C2  09F8               	comf	___awmod@divisor,f
  4236     13C3  09F9               	comf	___awmod@divisor+1,f
  4237     13C4  0AF8               	incf	___awmod@divisor,f
  4238     13C5  1903               	skipnz
  4239     13C6  0AF9               	incf	___awmod@divisor+1,f
  4240     13C7                     l2954:
  4241     13C7  0878               	movf	___awmod@divisor,w
  4242     13C8  0479               	iorwf	___awmod@divisor+1,w
  4243     13C9  1903               	btfsc	3,2
  4244     13CA  2BCC               	goto	u3551
  4245     13CB  2BCD               	goto	u3550
  4246     13CC                     u3551:
  4247     13CC  2BFC               	goto	l2972
  4248     13CD                     u3550:
  4249     13CD                     l2956:
  4250     13CD  01FC               	clrf	___awmod@counter
  4251     13CE  0AFC               	incf	___awmod@counter,f
  4252     13CF  2BDB               	goto	l2962
  4253     13D0                     l2958:
  4254     13D0  3001               	movlw	1
  4255     13D1                     u3565:
  4256     13D1  1003               	clrc
  4257     13D2  0DF8               	rlf	___awmod@divisor,f
  4258     13D3  0DF9               	rlf	___awmod@divisor+1,f
  4259     13D4  3EFF               	addlw	-1
  4260     13D5  1D03               	skipz
  4261     13D6  2BD1               	goto	u3565
  4262     13D7                     l2960:
  4263     13D7  3001               	movlw	1
  4264     13D8  00FF               	movwf	btemp+1
  4265     13D9  087F               	movf	btemp+1,w
  4266     13DA  07FC               	addwf	___awmod@counter,f
  4267     13DB                     l2962:
  4268     13DB  1FF9               	btfss	___awmod@divisor+1,7
  4269     13DC  2BDE               	goto	u3571
  4270     13DD  2BDF               	goto	u3570
  4271     13DE                     u3571:
  4272     13DE  2BD0               	goto	l2958
  4273     13DF                     u3570:
  4274     13DF                     l2964:
  4275     13DF  0879               	movf	___awmod@divisor+1,w
  4276     13E0  027B               	subwf	___awmod@dividend+1,w
  4277     13E1  1D03               	skipz
  4278     13E2  2BE5               	goto	u3585
  4279     13E3  0878               	movf	___awmod@divisor,w
  4280     13E4  027A               	subwf	___awmod@dividend,w
  4281     13E5                     u3585:
  4282     13E5  1C03               	skipc
  4283     13E6  2BE8               	goto	u3581
  4284     13E7  2BE9               	goto	u3580
  4285     13E8                     u3581:
  4286     13E8  2BEF               	goto	l2968
  4287     13E9                     u3580:
  4288     13E9                     l2966:
  4289     13E9  0878               	movf	___awmod@divisor,w
  4290     13EA  02FA               	subwf	___awmod@dividend,f
  4291     13EB  0879               	movf	___awmod@divisor+1,w
  4292     13EC  1C03               	skipc
  4293     13ED  03FB               	decf	___awmod@dividend+1,f
  4294     13EE  02FB               	subwf	___awmod@dividend+1,f
  4295     13EF                     l2968:
  4296     13EF  3001               	movlw	1
  4297     13F0                     u3595:
  4298     13F0  1003               	clrc
  4299     13F1  0CF9               	rrf	___awmod@divisor+1,f
  4300     13F2  0CF8               	rrf	___awmod@divisor,f
  4301     13F3  3EFF               	addlw	-1
  4302     13F4  1D03               	skipz
  4303     13F5  2BF0               	goto	u3595
  4304     13F6                     l2970:
  4305     13F6  3001               	movlw	1
  4306     13F7  02FC               	subwf	___awmod@counter,f
  4307     13F8  1D03               	btfss	3,2
  4308     13F9  2BFB               	goto	u3601
  4309     13FA  2BFC               	goto	u3600
  4310     13FB                     u3601:
  4311     13FB  2BDF               	goto	l2964
  4312     13FC                     u3600:
  4313     13FC                     l2972:
  4314     13FC  087D               	movf	___awmod@sign,w
  4315     13FD  1903               	btfsc	3,2
  4316     13FE  2C00               	goto	u3611
  4317     13FF  2C01               	goto	u3610
  4318     1400                     u3611:
  4319     1400  2C06               	goto	l2976
  4320     1401                     u3610:
  4321     1401                     l2974:
  4322     1401  09FA               	comf	___awmod@dividend,f
  4323     1402  09FB               	comf	___awmod@dividend+1,f
  4324     1403  0AFA               	incf	___awmod@dividend,f
  4325     1404  1903               	skipnz
  4326     1405  0AFB               	incf	___awmod@dividend+1,f
  4327     1406                     l2976:
  4328     1406  087B               	movf	___awmod@dividend+1,w
  4329     1407  00F9               	movwf	?___awmod+1
  4330     1408  087A               	movf	___awmod@dividend,w
  4331     1409  00F8               	movwf	?___awmod
  4332     140A                     l666:
  4333     140A  0008               	return
  4334     140B                     __end_of___awmod:
  4335                           
  4336                           	psect	text9
  4337     1301                     __ptext9:	
  4338 ;; *************** function _lcd_writeString *****************
  4339 ;; Defined at:
  4340 ;;		line 113 in file "i2c.c"
  4341 ;; Parameters:    Size  Location     Type
  4342 ;;  str             1    wreg     PTR unsigned char 
  4343 ;;		 -> STR_27(8), STR_26(8), STR_25(9), STR_24(5), 
  4344 ;;		 -> STR_23(6), STR_22(9), STR_21(16), STR_20(5), 
  4345 ;;		 -> STR_19(6), STR_18(8), STR_17(5), STR_16(11), 
  4346 ;;		 -> STR_15(5), STR_14(11), STR_13(8), STR_12(11), 
  4347 ;;		 -> STR_11(4), STR_10(4), STR_9(4), STR_8(4), 
  4348 ;;		 -> STR_7(4), STR_6(4), STR_5(4), STR_4(4), 
  4349 ;;		 -> STR_3(6), STR_2(7), STR_1(13), 
  4350 ;; Auto vars:     Size  Location     Type
  4351 ;;  str             1    8[COMMON] PTR unsigned char 
  4352 ;;		 -> STR_27(8), STR_26(8), STR_25(9), STR_24(5), 
  4353 ;;		 -> STR_23(6), STR_22(9), STR_21(16), STR_20(5), 
  4354 ;;		 -> STR_19(6), STR_18(8), STR_17(5), STR_16(11), 
  4355 ;;		 -> STR_15(5), STR_14(11), STR_13(8), STR_12(11), 
  4356 ;;		 -> STR_11(4), STR_10(4), STR_9(4), STR_8(4), 
  4357 ;;		 -> STR_7(4), STR_6(4), STR_5(4), STR_4(4), 
  4358 ;;		 -> STR_3(6), STR_2(7), STR_1(13), 
  4359 ;;  i               2    6[COMMON] int 
  4360 ;; Return value:  Size  Location     Type
  4361 ;;                  1    wreg      void 
  4362 ;; Registers used:
  4363 ;;		wreg, fsr0l, fsr0h, status,2, status,0, btemp+1, pclath, cstack
  4364 ;; Tracked objects:
  4365 ;;		On entry : 0/0
  4366 ;;		On exit  : 0/0
  4367 ;;		Unchanged: 0/0
  4368 ;; Data sizes:     COMMON   BANK0   BANK1   BANK3   BANK2
  4369 ;;      Params:         0       0       0       0       0
  4370 ;;      Locals:         3       0       0       0       0
  4371 ;;      Temps:          0       0       0       0       0
  4372 ;;      Totals:         3       0       0       0       0
  4373 ;;Total ram usage:        3 bytes
  4374 ;; Hardware stack levels used: 1
  4375 ;; Hardware stack levels required when called: 5
  4376 ;; This function calls:
  4377 ;;		_lcd_writeChar
  4378 ;; This function is called by:
  4379 ;;		_main
  4380 ;; This function uses a non-reentrant model
  4381 ;;
  4382                           
  4383     1301                     _lcd_writeString:	
  4384                           ;psect for function _lcd_writeString
  4385                           
  4386                           
  4387                           ;incstack = 0
  4388                           ; Regs used in _lcd_writeString: [wreg-fsr0h+status,2+status,0+btemp+1+pclath+cstack]
  4389                           ;lcd_writeString@str stored from wreg
  4390     1301  00F8               	movwf	lcd_writeString@str
  4391     1302                     l3302:
  4392                           
  4393                           ;i2c.c: 114:     for(int i = 0;str[i] != '\0';i++)
  4394     1302  01F6               	clrf	lcd_writeString@i
  4395     1303  01F7               	clrf	lcd_writeString@i+1
  4396     1304  2B18               	goto	l3308
  4397     1305                     l3304:
  4398                           
  4399                           ;i2c.c: 115:         lcd_writeChar(str[i]);
  4400     1305  0876               	movf	lcd_writeString@i,w
  4401     1306  0778               	addwf	lcd_writeString@str,w
  4402     1307  0084               	movwf	4
  4403     1308  160A  118A  2000  160A  118A  	fcall	stringdir
  4404     130D  160A  118A  2278  160A  118A  	fcall	_lcd_writeChar
  4405     1312                     l3306:
  4406     1312  3001               	movlw	1
  4407     1313  07F6               	addwf	lcd_writeString@i,f
  4408     1314  1803               	skipnc
  4409     1315  0AF7               	incf	lcd_writeString@i+1,f
  4410     1316  3000               	movlw	0
  4411     1317  07F7               	addwf	lcd_writeString@i+1,f
  4412     1318                     l3308:
  4413     1318  0876               	movf	lcd_writeString@i,w
  4414     1319  0778               	addwf	lcd_writeString@str,w
  4415     131A  0084               	movwf	4
  4416     131B  160A  118A  2000  160A  118A  	fcall	stringdir
  4417     1320  3A00               	xorlw	0
  4418     1321  1D03               	skipz
  4419     1322  2B24               	goto	u4281
  4420     1323  2B25               	goto	u4280
  4421     1324                     u4281:
  4422     1324  2B05               	goto	l3304
  4423     1325                     u4280:
  4424     1325                     l72:
  4425     1325  0008               	return
  4426     1326                     __end_of_lcd_writeString:
  4427                           
  4428                           	psect	text10
  4429     1278                     __ptext10:	
  4430 ;; *************** function _lcd_writeChar *****************
  4431 ;; Defined at:
  4432 ;;		line 107 in file "i2c.c"
  4433 ;; Parameters:    Size  Location     Type
  4434 ;;  data            1    wreg     unsigned char 
  4435 ;; Auto vars:     Size  Location     Type
  4436 ;;  data            1    5[COMMON] unsigned char 
  4437 ;; Return value:  Size  Location     Type
  4438 ;;                  1    wreg      void 
  4439 ;; Registers used:
  4440 ;;		wreg, status,2, status,0, btemp+1, pclath, cstack
  4441 ;; Tracked objects:
  4442 ;;		On entry : 0/0
  4443 ;;		On exit  : 0/0
  4444 ;;		Unchanged: 0/0
  4445 ;; Data sizes:     COMMON   BANK0   BANK1   BANK3   BANK2
  4446 ;;      Params:         0       0       0       0       0
  4447 ;;      Locals:         1       0       0       0       0
  4448 ;;      Temps:          1       0       0       0       0
  4449 ;;      Totals:         2       0       0       0       0
  4450 ;;Total ram usage:        2 bytes
  4451 ;; Hardware stack levels used: 1
  4452 ;; Hardware stack levels required when called: 4
  4453 ;; This function calls:
  4454 ;;		_lcd_write4Bit
  4455 ;; This function is called by:
  4456 ;;		_lcd_writeString
  4457 ;;		_printInteger
  4458 ;;		_main
  4459 ;; This function uses a non-reentrant model
  4460 ;;
  4461                           
  4462     1278                     _lcd_writeChar:	
  4463                           ;psect for function _lcd_writeChar
  4464                           
  4465                           
  4466                           ;incstack = 0
  4467                           ; Regs used in _lcd_writeChar: [wreg+status,2+status,0+btemp+1+pclath+cstack]
  4468                           ;lcd_writeChar@data stored from wreg
  4469     1278  00F5               	movwf	lcd_writeChar@data
  4470     1279                     l2868:
  4471                           
  4472                           ;i2c.c: 108:     RS = 1;
  4473     1279  1283               	bcf	3,5	;RP0=0, select bank0
  4474     127A  1303               	bcf	3,6	;RP1=0, select bank0
  4475     127B  01EF               	clrf	_RS
  4476     127C  0AEF               	incf	_RS,f
  4477     127D                     l2870:
  4478                           
  4479                           ;i2c.c: 109:     lcd_write4Bit(data & 0xF0);
  4480     127D  0875               	movf	lcd_writeChar@data,w
  4481     127E  39F0               	andlw	240
  4482     127F  160A  118A  21EE  160A  118A  	fcall	_lcd_write4Bit
  4483                           
  4484                           ;i2c.c: 110:     lcd_write4Bit((data << 4) & 0xF0);
  4485     1284  0875               	movf	lcd_writeChar@data,w
  4486     1285  00F4               	movwf	??_lcd_writeChar
  4487     1286  3003               	movlw	3
  4488     1287                     u3365:
  4489     1287  1003               	clrc
  4490     1288  0DF4               	rlf	??_lcd_writeChar,f
  4491     1289  3EFF               	addlw	-1
  4492     128A  1D03               	skipz
  4493     128B  2A87               	goto	u3365
  4494     128C  1003               	clrc
  4495     128D  0D74               	rlf	??_lcd_writeChar,w
  4496     128E  39F0               	andlw	240
  4497     128F  160A  118A  21EE  160A  118A  	fcall	_lcd_write4Bit
  4498     1294                     l66:
  4499     1294  0008               	return
  4500     1295                     __end_of_lcd_writeChar:
  4501                           
  4502                           	psect	text11
  4503     123F                     __ptext11:	
  4504 ;; *************** function _lcd_setCursor *****************
  4505 ;; Defined at:
  4506 ;;		line 118 in file "i2c.c"
  4507 ;; Parameters:    Size  Location     Type
  4508 ;;  row             1    wreg     unsigned char 
  4509 ;;  col             1    6[COMMON] unsigned char 
  4510 ;; Auto vars:     Size  Location     Type
  4511 ;;  row             1    7[COMMON] unsigned char 
  4512 ;; Return value:  Size  Location     Type
  4513 ;;                  1    wreg      void 
  4514 ;; Registers used:
  4515 ;;		wreg, status,2, status,0, btemp+1, pclath, cstack
  4516 ;; Tracked objects:
  4517 ;;		On entry : 0/0
  4518 ;;		On exit  : 0/0
  4519 ;;		Unchanged: 0/0
  4520 ;; Data sizes:     COMMON   BANK0   BANK1   BANK3   BANK2
  4521 ;;      Params:         1       0       0       0       0
  4522 ;;      Locals:         1       0       0       0       0
  4523 ;;      Temps:          0       0       0       0       0
  4524 ;;      Totals:         2       0       0       0       0
  4525 ;;Total ram usage:        2 bytes
  4526 ;; Hardware stack levels used: 1
  4527 ;; Hardware stack levels required when called: 5
  4528 ;; This function calls:
  4529 ;;		_lcd_cmd
  4530 ;; This function is called by:
  4531 ;;		_main
  4532 ;; This function uses a non-reentrant model
  4533 ;;
  4534                           
  4535     123F                     _lcd_setCursor:	
  4536                           ;psect for function _lcd_setCursor
  4537                           
  4538                           
  4539                           ;incstack = 0
  4540                           ; Regs used in _lcd_setCursor: [wreg+status,2+status,0+btemp+1+pclath+cstack]
  4541                           ;lcd_setCursor@row stored from wreg
  4542     123F  00F7               	movwf	lcd_setCursor@row
  4543     1240                     l3310:
  4544                           
  4545                           ;i2c.c: 119:     if(row == 1)
  4546     1240  0377               	decf	lcd_setCursor@row,w
  4547     1241  1D03               	btfss	3,2
  4548     1242  2A44               	goto	u4291
  4549     1243  2A45               	goto	u4290
  4550     1244                     u4291:
  4551     1244  2A4D               	goto	l3314
  4552     1245                     u4290:
  4553     1245                     l3312:
  4554                           
  4555                           ;i2c.c: 120:         lcd_cmd(0x80 + col - 1);
  4556     1245  0876               	movf	lcd_setCursor@col,w
  4557     1246  3E7F               	addlw	127
  4558     1247  160A  118A  2223  160A  118A  	fcall	_lcd_cmd
  4559     124C  2A5A               	goto	l78
  4560     124D                     l3314:
  4561     124D  3002               	movlw	2
  4562     124E  0677               	xorwf	lcd_setCursor@row,w
  4563     124F  1D03               	btfss	3,2
  4564     1250  2A52               	goto	u4301
  4565     1251  2A53               	goto	u4300
  4566     1252                     u4301:
  4567     1252  2A5A               	goto	l78
  4568     1253                     u4300:
  4569     1253                     l3316:
  4570                           
  4571                           ;i2c.c: 122:         lcd_cmd(0xC0 + col - 1);
  4572     1253  0876               	movf	lcd_setCursor@col,w
  4573     1254  3EBF               	addlw	191
  4574     1255  160A  118A  2223  160A  118A  	fcall	_lcd_cmd
  4575     125A                     l78:
  4576     125A  0008               	return
  4577     125B                     __end_of_lcd_setCursor:
  4578                           
  4579                           	psect	text12
  4580     1647                     __ptext12:	
  4581 ;; *************** function _lcd_init *****************
  4582 ;; Defined at:
  4583 ;;		line 65 in file "i2c.c"
  4584 ;; Parameters:    Size  Location     Type
  4585 ;;  i2c_Add         1    wreg     unsigned char 
  4586 ;; Auto vars:     Size  Location     Type
  4587 ;;  i2c_Add         1    8[COMMON] unsigned char 
  4588 ;; Return value:  Size  Location     Type
  4589 ;;                  1    wreg      void 
  4590 ;; Registers used:
  4591 ;;		wreg, status,2, status,0, btemp+1, pclath, cstack
  4592 ;; Tracked objects:
  4593 ;;		On entry : 0/0
  4594 ;;		On exit  : 0/0
  4595 ;;		Unchanged: 0/0
  4596 ;; Data sizes:     COMMON   BANK0   BANK1   BANK3   BANK2
  4597 ;;      Params:         0       0       0       0       0
  4598 ;;      Locals:         1       0       0       0       0
  4599 ;;      Temps:          2       0       0       0       0
  4600 ;;      Totals:         3       0       0       0       0
  4601 ;;Total ram usage:        3 bytes
  4602 ;; Hardware stack levels used: 1
  4603 ;; Hardware stack levels required when called: 5
  4604 ;; This function calls:
  4605 ;;		_lcd_cmd
  4606 ;; This function is called by:
  4607 ;;		_main
  4608 ;; This function uses a non-reentrant model
  4609 ;;
  4610                           
  4611     1647                     _lcd_init:	
  4612                           ;psect for function _lcd_init
  4613                           
  4614                           
  4615                           ;incstack = 0
  4616                           ; Regs used in _lcd_init: [wreg+status,2+status,0+btemp+1+pclath+cstack]
  4617                           ;lcd_init@i2c_Add stored from wreg
  4618     1647  00F8               	movwf	lcd_init@i2c_Add
  4619     1648                     l3278:
  4620                           
  4621                           ;i2c.c: 66:     i2c_add = i2c_Add;
  4622     1648  0878               	movf	lcd_init@i2c_Add,w
  4623     1649  1683               	bsf	3,5	;RP0=1, select bank1
  4624     164A  1303               	bcf	3,6	;RP1=0, select bank1
  4625     164B  00EE               	movwf	_i2c_add^(0+128)
  4626                           
  4627                           ;i2c.c: 68:     _delay((unsigned long)((30)*(8000000/4000.0)));
  4628     164C  304E               	movlw	78
  4629     164D  00F7               	movwf	??_lcd_init+1
  4630     164E  30EB               	movlw	235
  4631     164F  00F6               	movwf	??_lcd_init
  4632     1650                     u5087:
  4633     1650  0BF6               	decfsz	??_lcd_init,f
  4634     1651  2E50               	goto	u5087
  4635     1652  0BF7               	decfsz	??_lcd_init+1,f
  4636     1653  2E50               	goto	u5087
  4637     1654                     l3280:
  4638                           
  4639                           ;i2c.c: 69:     lcd_cmd(0x03);
  4640     1654  3003               	movlw	3
  4641     1655  160A  118A  2223  160A  118A  	fcall	_lcd_cmd
  4642     165A                     l3282:
  4643                           
  4644                           ;i2c.c: 70:     _delay((unsigned long)((5)*(8000000/4000.0)));
  4645     165A  300D               	movlw	13
  4646     165B  00F7               	movwf	??_lcd_init+1
  4647     165C  30FB               	movlw	251
  4648     165D  00F6               	movwf	??_lcd_init
  4649     165E                     u5097:
  4650     165E  0BF6               	decfsz	??_lcd_init,f
  4651     165F  2E5E               	goto	u5097
  4652     1660  0BF7               	decfsz	??_lcd_init+1,f
  4653     1661  2E5E               	goto	u5097
  4654     1662  2E63               	nop2
  4655                           
  4656                           ;i2c.c: 71:     lcd_cmd(0x03);
  4657     1663  3003               	movlw	3
  4658     1664  160A  118A  2223  160A  118A  	fcall	_lcd_cmd
  4659     1669                     l3284:
  4660                           
  4661                           ;i2c.c: 72:     _delay((unsigned long)((5)*(8000000/4000.0)));
  4662     1669  300D               	movlw	13
  4663     166A  00F7               	movwf	??_lcd_init+1
  4664     166B  30FB               	movlw	251
  4665     166C  00F6               	movwf	??_lcd_init
  4666     166D                     u5107:
  4667     166D  0BF6               	decfsz	??_lcd_init,f
  4668     166E  2E6D               	goto	u5107
  4669     166F  0BF7               	decfsz	??_lcd_init+1,f
  4670     1670  2E6D               	goto	u5107
  4671     1671  2E72               	nop2
  4672     1672                     l3286:
  4673                           
  4674                           ;i2c.c: 73:     lcd_cmd(0x03);
  4675     1672  3003               	movlw	3
  4676     1673  160A  118A  2223  160A  118A  	fcall	_lcd_cmd
  4677                           
  4678                           ;i2c.c: 74:     _delay((unsigned long)((5)*(8000000/4000.0)));
  4679     1678  300D               	movlw	13
  4680     1679  00F7               	movwf	??_lcd_init+1
  4681     167A  30FB               	movlw	251
  4682     167B  00F6               	movwf	??_lcd_init
  4683     167C                     u5117:
  4684     167C  0BF6               	decfsz	??_lcd_init,f
  4685     167D  2E7C               	goto	u5117
  4686     167E  0BF7               	decfsz	??_lcd_init+1,f
  4687     167F  2E7C               	goto	u5117
  4688     1680  2E81               	nop2
  4689     1681                     l3288:
  4690                           
  4691                           ;i2c.c: 75:     lcd_cmd(0x02);
  4692     1681  3002               	movlw	2
  4693     1682  160A  118A  2223  160A  118A  	fcall	_lcd_cmd
  4694     1687                     l3290:
  4695                           
  4696                           ;i2c.c: 76:     _delay((unsigned long)((5)*(8000000/4000.0)));
  4697     1687  300D               	movlw	13
  4698     1688  00F7               	movwf	??_lcd_init+1
  4699     1689  30FB               	movlw	251
  4700     168A  00F6               	movwf	??_lcd_init
  4701     168B                     u5127:
  4702     168B  0BF6               	decfsz	??_lcd_init,f
  4703     168C  2E8B               	goto	u5127
  4704     168D  0BF7               	decfsz	??_lcd_init+1,f
  4705     168E  2E8B               	goto	u5127
  4706     168F  2E90               	nop2
  4707                           
  4708                           ;i2c.c: 77:     lcd_cmd(0x20 | (2 << 2));
  4709     1690  3028               	movlw	40
  4710     1691  160A  118A  2223  160A  118A  	fcall	_lcd_cmd
  4711     1696                     l3292:
  4712                           
  4713                           ;i2c.c: 78:     _delay((unsigned long)((50)*(8000000/4000.0)));
  4714     1696  3082               	movlw	130
  4715     1697  00F7               	movwf	??_lcd_init+1
  4716     1698  30DD               	movlw	221
  4717     1699  00F6               	movwf	??_lcd_init
  4718     169A                     u5137:
  4719     169A  0BF6               	decfsz	??_lcd_init,f
  4720     169B  2E9A               	goto	u5137
  4721     169C  0BF7               	decfsz	??_lcd_init+1,f
  4722     169D  2E9A               	goto	u5137
  4723     169E  2E9F               	nop2
  4724     169F                     l3294:
  4725                           
  4726                           ;i2c.c: 79:     lcd_cmd(0x0C);
  4727     169F  300C               	movlw	12
  4728     16A0  160A  118A  2223  160A  118A  	fcall	_lcd_cmd
  4729                           
  4730                           ;i2c.c: 80:     _delay((unsigned long)((50)*(8000000/4000.0)));
  4731     16A5  3082               	movlw	130
  4732     16A6  00F7               	movwf	??_lcd_init+1
  4733     16A7  30DD               	movlw	221
  4734     16A8  00F6               	movwf	??_lcd_init
  4735     16A9                     u5147:
  4736     16A9  0BF6               	decfsz	??_lcd_init,f
  4737     16AA  2EA9               	goto	u5147
  4738     16AB  0BF7               	decfsz	??_lcd_init+1,f
  4739     16AC  2EA9               	goto	u5147
  4740     16AD  2EAE               	nop2
  4741     16AE                     l3296:
  4742                           
  4743                           ;i2c.c: 81:     lcd_cmd(0x01);
  4744     16AE  3001               	movlw	1
  4745     16AF  160A  118A  2223  160A  118A  	fcall	_lcd_cmd
  4746     16B4                     l3298:
  4747                           
  4748                           ;i2c.c: 82:     _delay((unsigned long)((50)*(8000000/4000.0)));
  4749     16B4  3082               	movlw	130
  4750     16B5  00F7               	movwf	??_lcd_init+1
  4751     16B6  30DD               	movlw	221
  4752     16B7  00F6               	movwf	??_lcd_init
  4753     16B8                     u5157:
  4754     16B8  0BF6               	decfsz	??_lcd_init,f
  4755     16B9  2EB8               	goto	u5157
  4756     16BA  0BF7               	decfsz	??_lcd_init+1,f
  4757     16BB  2EB8               	goto	u5157
  4758     16BC  2EBD               	nop2
  4759                           
  4760                           ;i2c.c: 83:     lcd_cmd(0x04 | 0x02);
  4761     16BD  3006               	movlw	6
  4762     16BE  160A  118A  2223  160A  118A  	fcall	_lcd_cmd
  4763     16C3                     l3300:
  4764                           
  4765                           ;i2c.c: 84:     _delay((unsigned long)((50)*(8000000/4000.0)));
  4766     16C3  3082               	movlw	130
  4767     16C4  00F7               	movwf	??_lcd_init+1
  4768     16C5  30DD               	movlw	221
  4769     16C6  00F6               	movwf	??_lcd_init
  4770     16C7                     u5167:
  4771     16C7  0BF6               	decfsz	??_lcd_init,f
  4772     16C8  2EC7               	goto	u5167
  4773     16C9  0BF7               	decfsz	??_lcd_init+1,f
  4774     16CA  2EC7               	goto	u5167
  4775     16CB  2ECC               	nop2
  4776     16CC                     l54:
  4777     16CC  0008               	return
  4778     16CD                     __end_of_lcd_init:
  4779                           
  4780                           	psect	text13
  4781     11A3                     __ptext13:	
  4782 ;; *************** function _lcd_clear *****************
  4783 ;; Defined at:
  4784 ;;		line 145 in file "i2c.c"
  4785 ;; Parameters:    Size  Location     Type
  4786 ;;		None
  4787 ;; Auto vars:     Size  Location     Type
  4788 ;;		None
  4789 ;; Return value:  Size  Location     Type
  4790 ;;                  1    wreg      void 
  4791 ;; Registers used:
  4792 ;;		wreg, status,2, status,0, btemp+1, pclath, cstack
  4793 ;; Tracked objects:
  4794 ;;		On entry : 0/0
  4795 ;;		On exit  : 0/0
  4796 ;;		Unchanged: 0/0
  4797 ;; Data sizes:     COMMON   BANK0   BANK1   BANK3   BANK2
  4798 ;;      Params:         0       0       0       0       0
  4799 ;;      Locals:         0       0       0       0       0
  4800 ;;      Temps:          1       0       0       0       0
  4801 ;;      Totals:         1       0       0       0       0
  4802 ;;Total ram usage:        1 bytes
  4803 ;; Hardware stack levels used: 1
  4804 ;; Hardware stack levels required when called: 5
  4805 ;; This function calls:
  4806 ;;		_lcd_cmd
  4807 ;; This function is called by:
  4808 ;;		_main
  4809 ;; This function uses a non-reentrant model
  4810 ;;
  4811                           
  4812     11A3                     _lcd_clear:	
  4813                           ;psect for function _lcd_clear
  4814                           
  4815     11A3                     l3318:	
  4816                           ;incstack = 0
  4817                           ; Regs used in _lcd_clear: [wreg+status,2+status,0+btemp+1+pclath+cstack]
  4818                           
  4819                           
  4820                           ;i2c.c: 146:     lcd_cmd(0x01);
  4821     11A3  3001               	movlw	1
  4822     11A4  160A  118A  2223  160A  118A  	fcall	_lcd_cmd
  4823     11A9                     l3320:
  4824                           
  4825                           ;i2c.c: 147:     _delay((unsigned long)((40)*(8000000/4000000.0)));
  4826     11A9  301A               	movlw	26
  4827     11AA  00F6               	movwf	??_lcd_clear
  4828     11AB                     u5177:
  4829     11AB  0BF6               	decfsz	??_lcd_clear,f
  4830     11AC  29AB               	goto	u5177
  4831     11AD  0000               	nop
  4832     11AE                     l93:
  4833     11AE  0008               	return
  4834     11AF                     __end_of_lcd_clear:
  4835                           
  4836                           	psect	text14
  4837     1223                     __ptext14:	
  4838 ;; *************** function _lcd_cmd *****************
  4839 ;; Defined at:
  4840 ;;		line 101 in file "i2c.c"
  4841 ;; Parameters:    Size  Location     Type
  4842 ;;  cmd             1    wreg     unsigned char 
  4843 ;; Auto vars:     Size  Location     Type
  4844 ;;  cmd             1    5[COMMON] unsigned char 
  4845 ;; Return value:  Size  Location     Type
  4846 ;;                  1    wreg      void 
  4847 ;; Registers used:
  4848 ;;		wreg, status,2, status,0, btemp+1, pclath, cstack
  4849 ;; Tracked objects:
  4850 ;;		On entry : 0/0
  4851 ;;		On exit  : 0/0
  4852 ;;		Unchanged: 0/0
  4853 ;; Data sizes:     COMMON   BANK0   BANK1   BANK3   BANK2
  4854 ;;      Params:         0       0       0       0       0
  4855 ;;      Locals:         1       0       0       0       0
  4856 ;;      Temps:          1       0       0       0       0
  4857 ;;      Totals:         2       0       0       0       0
  4858 ;;Total ram usage:        2 bytes
  4859 ;; Hardware stack levels used: 1
  4860 ;; Hardware stack levels required when called: 4
  4861 ;; This function calls:
  4862 ;;		_lcd_write4Bit
  4863 ;; This function is called by:
  4864 ;;		_lcd_init
  4865 ;;		_lcd_setCursor
  4866 ;;		_lcd_clear
  4867 ;;		_lcd_shiftLeft
  4868 ;;		_lcd_shiftRight
  4869 ;; This function uses a non-reentrant model
  4870 ;;
  4871                           
  4872     1223                     _lcd_cmd:	
  4873                           ;psect for function _lcd_cmd
  4874                           
  4875                           
  4876                           ;incstack = 0
  4877                           ; Regs used in _lcd_cmd: [wreg+status,2+status,0+btemp+1+pclath+cstack]
  4878                           ;lcd_cmd@cmd stored from wreg
  4879     1223  00F5               	movwf	lcd_cmd@cmd
  4880     1224                     l2862:
  4881                           
  4882                           ;i2c.c: 102:     RS = 0;
  4883     1224  1283               	bcf	3,5	;RP0=0, select bank0
  4884     1225  1303               	bcf	3,6	;RP1=0, select bank0
  4885     1226  01EF               	clrf	_RS
  4886     1227                     l2864:
  4887                           
  4888                           ;i2c.c: 103:     lcd_write4Bit(cmd & 0xF0);
  4889     1227  0875               	movf	lcd_cmd@cmd,w
  4890     1228  39F0               	andlw	240
  4891     1229  160A  118A  21EE  160A  118A  	fcall	_lcd_write4Bit
  4892     122E                     l2866:
  4893                           
  4894                           ;i2c.c: 104:     lcd_write4Bit((cmd << 4) & 0xF0);
  4895     122E  0875               	movf	lcd_cmd@cmd,w
  4896     122F  00F4               	movwf	??_lcd_cmd
  4897     1230  3003               	movlw	3
  4898     1231                     u3355:
  4899     1231  1003               	clrc
  4900     1232  0DF4               	rlf	??_lcd_cmd,f
  4901     1233  3EFF               	addlw	-1
  4902     1234  1D03               	skipz
  4903     1235  2A31               	goto	u3355
  4904     1236  1003               	clrc
  4905     1237  0D74               	rlf	??_lcd_cmd,w
  4906     1238  39F0               	andlw	240
  4907     1239  160A  118A  21EE  160A  118A  	fcall	_lcd_write4Bit
  4908     123E                     l63:
  4909     123E  0008               	return
  4910     123F                     __end_of_lcd_cmd:
  4911                           
  4912                           	psect	text15
  4913     11EE                     __ptext15:	
  4914 ;; *************** function _lcd_write4Bit *****************
  4915 ;; Defined at:
  4916 ;;		line 94 in file "i2c.c"
  4917 ;; Parameters:    Size  Location     Type
  4918 ;;  nibble          1    wreg     unsigned char 
  4919 ;; Auto vars:     Size  Location     Type
  4920 ;;  nibble          1    3[COMMON] unsigned char 
  4921 ;; Return value:  Size  Location     Type
  4922 ;;                  1    wreg      void 
  4923 ;; Registers used:
  4924 ;;		wreg, status,2, status,0, btemp+1, pclath, cstack
  4925 ;; Tracked objects:
  4926 ;;		On entry : 0/0
  4927 ;;		On exit  : 0/0
  4928 ;;		Unchanged: 0/0
  4929 ;; Data sizes:     COMMON   BANK0   BANK1   BANK3   BANK2
  4930 ;;      Params:         0       0       0       0       0
  4931 ;;      Locals:         1       0       0       0       0
  4932 ;;      Temps:          1       0       0       0       0
  4933 ;;      Totals:         2       0       0       0       0
  4934 ;;Total ram usage:        2 bytes
  4935 ;; Hardware stack levels used: 1
  4936 ;; Hardware stack levels required when called: 3
  4937 ;; This function calls:
  4938 ;;		_io_expanderWrite
  4939 ;; This function is called by:
  4940 ;;		_lcd_cmd
  4941 ;;		_lcd_writeChar
  4942 ;; This function uses a non-reentrant model
  4943 ;;
  4944                           
  4945     11EE                     _lcd_write4Bit:	
  4946                           ;psect for function _lcd_write4Bit
  4947                           
  4948                           
  4949                           ;incstack = 0
  4950                           ; Regs used in _lcd_write4Bit: [wreg+status,2+status,0+btemp+1+pclath+cstack]
  4951                           ;lcd_write4Bit@nibble stored from wreg
  4952     11EE  00F3               	movwf	lcd_write4Bit@nibble
  4953     11EF                     l2710:
  4954                           
  4955                           ;i2c.c: 95:     nibble |= RS;
  4956     11EF  1283               	bcf	3,5	;RP0=0, select bank0
  4957     11F0  1303               	bcf	3,6	;RP1=0, select bank0
  4958     11F1  086F               	movf	_RS,w
  4959     11F2  00FF               	movwf	btemp+1
  4960     11F3  087F               	movf	btemp+1,w
  4961     11F4  04F3               	iorwf	lcd_write4Bit@nibble,f
  4962     11F5                     l2712:
  4963                           
  4964                           ;i2c.c: 96:     io_expanderWrite(nibble | 0x04);
  4965     11F5  0873               	movf	lcd_write4Bit@nibble,w
  4966     11F6  3804               	iorlw	4
  4967     11F7  160A  118A  225B  160A  118A  	fcall	_io_expanderWrite
  4968     11FC                     l2714:
  4969                           
  4970                           ;i2c.c: 97:     io_expanderWrite(nibble & 0xFB);
  4971     11FC  0873               	movf	lcd_write4Bit@nibble,w
  4972     11FD  39FB               	andlw	251
  4973     11FE  160A  118A  225B  160A  118A  	fcall	_io_expanderWrite
  4974                           
  4975                           ;i2c.c: 98:     _delay((unsigned long)((50)*(8000000/4000000.0)));
  4976     1203  3021               	movlw	33
  4977     1204  00F2               	movwf	??_lcd_write4Bit
  4978     1205                     u5187:
  4979     1205  0BF2               	decfsz	??_lcd_write4Bit,f
  4980     1206  2A05               	goto	u5187
  4981     1207                     l60:
  4982     1207  0008               	return
  4983     1208                     __end_of_lcd_write4Bit:
  4984                           
  4985                           	psect	text16
  4986     125B                     __ptext16:	
  4987 ;; *************** function _io_expanderWrite *****************
  4988 ;; Defined at:
  4989 ;;		line 87 in file "i2c.c"
  4990 ;; Parameters:    Size  Location     Type
  4991 ;;  data            1    wreg     unsigned char 
  4992 ;; Auto vars:     Size  Location     Type
  4993 ;;  data            1    1[COMMON] unsigned char 
  4994 ;; Return value:  Size  Location     Type
  4995 ;;                  1    wreg      void 
  4996 ;; Registers used:
  4997 ;;		wreg, status,2, status,0, pclath, cstack
  4998 ;; Tracked objects:
  4999 ;;		On entry : 0/0
  5000 ;;		On exit  : 0/0
  5001 ;;		Unchanged: 0/0
  5002 ;; Data sizes:     COMMON   BANK0   BANK1   BANK3   BANK2
  5003 ;;      Params:         0       0       0       0       0
  5004 ;;      Locals:         1       0       0       0       0
  5005 ;;      Temps:          0       0       0       0       0
  5006 ;;      Totals:         1       0       0       0       0
  5007 ;;Total ram usage:        1 bytes
  5008 ;; Hardware stack levels used: 1
  5009 ;; Hardware stack levels required when called: 2
  5010 ;; This function calls:
  5011 ;;		_i2c_masterStart
  5012 ;;		_i2c_masterStop
  5013 ;;		_i2c_masterWrite
  5014 ;; This function is called by:
  5015 ;;		_lcd_write4Bit
  5016 ;;		_backlight
  5017 ;;		_noBacklight
  5018 ;; This function uses a non-reentrant model
  5019 ;;
  5020                           
  5021     125B                     _io_expanderWrite:	
  5022                           ;psect for function _io_expanderWrite
  5023                           
  5024                           
  5025                           ;incstack = 0
  5026                           ; Regs used in _io_expanderWrite: [wreg+status,2+status,0+pclath+cstack]
  5027                           ;io_expanderWrite@data stored from wreg
  5028     125B  00F1               	movwf	io_expanderWrite@data
  5029     125C                     l2508:
  5030                           
  5031                           ;i2c.c: 88:     i2c_masterStart();
  5032     125C  160A  118A  214F  160A  118A  	fcall	_i2c_masterStart
  5033                           
  5034                           ;i2c.c: 89:     i2c_masterWrite(i2c_add);
  5035     1261  1683               	bsf	3,5	;RP0=1, select bank1
  5036     1262  1303               	bcf	3,6	;RP1=0, select bank1
  5037     1263  086E               	movf	_i2c_add^(0+128),w
  5038     1264  160A  118A  2180  160A  118A  	fcall	_i2c_masterWrite
  5039                           
  5040                           ;i2c.c: 90:     i2c_masterWrite(data | backlight_state);
  5041     1269  0871               	movf	io_expanderWrite@data,w
  5042     126A  1683               	bsf	3,5	;RP0=1, select bank1
  5043     126B  1303               	bcf	3,6	;RP1=0, select bank1
  5044     126C  046D               	iorwf	_backlight_state^(0+128),w
  5045     126D  160A  118A  2180  160A  118A  	fcall	_i2c_masterWrite
  5046                           
  5047                           ;i2c.c: 91:     i2c_masterStop();
  5048     1272  160A  118A  2158  160A  118A  	fcall	_i2c_masterStop
  5049     1277                     l57:
  5050     1277  0008               	return
  5051     1278                     __end_of_io_expanderWrite:
  5052                           
  5053                           	psect	text17
  5054     1180                     __ptext17:	
  5055 ;; *************** function _i2c_masterWrite *****************
  5056 ;; Defined at:
  5057 ;;		line 44 in file "i2c.c"
  5058 ;; Parameters:    Size  Location     Type
  5059 ;;  data            1    wreg     unsigned char 
  5060 ;; Auto vars:     Size  Location     Type
  5061 ;;  data            1    0[COMMON] unsigned char 
  5062 ;; Return value:  Size  Location     Type
  5063 ;;                  1    wreg      unsigned char 
  5064 ;; Registers used:
  5065 ;;		wreg, status,2, status,0, pclath, cstack
  5066 ;; Tracked objects:
  5067 ;;		On entry : 0/0
  5068 ;;		On exit  : 0/0
  5069 ;;		Unchanged: 0/0
  5070 ;; Data sizes:     COMMON   BANK0   BANK1   BANK3   BANK2
  5071 ;;      Params:         0       0       0       0       0
  5072 ;;      Locals:         1       0       0       0       0
  5073 ;;      Temps:          0       0       0       0       0
  5074 ;;      Totals:         1       0       0       0       0
  5075 ;;Total ram usage:        1 bytes
  5076 ;; Hardware stack levels used: 1
  5077 ;; Hardware stack levels required when called: 1
  5078 ;; This function calls:
  5079 ;;		_i2c_masterWait
  5080 ;; This function is called by:
  5081 ;;		_io_expanderWrite
  5082 ;;		_rtc_readTime
  5083 ;;		_rtc_readDate
  5084 ;; This function uses a non-reentrant model
  5085 ;;
  5086                           
  5087     1180                     _i2c_masterWrite:	
  5088                           ;psect for function _i2c_masterWrite
  5089                           
  5090                           
  5091                           ;incstack = 0
  5092                           ; Regs used in _i2c_masterWrite: [wreg+status,2+status,0+pclath+cstack]
  5093                           ;i2c_masterWrite@data stored from wreg
  5094     1180  00F0               	movwf	i2c_masterWrite@data
  5095     1181                     l2500:
  5096                           
  5097                           ;i2c.c: 45:     i2c_masterWait();
  5098     1181  160A  118A  21BB  160A  118A  	fcall	_i2c_masterWait
  5099     1186                     l2502:
  5100                           
  5101                           ;i2c.c: 46:     SSPBUF = data;
  5102     1186  0870               	movf	i2c_masterWrite@data,w
  5103     1187  1283               	bcf	3,5	;RP0=0, select bank0
  5104     1188  1303               	bcf	3,6	;RP1=0, select bank0
  5105     1189  0093               	movwf	19	;volatile
  5106     118A                     l2504:
  5107     118A                     l48:	
  5108                           ;i2c.c: 47:     return ACKSTAT;;	Return value of _i2c_masterWrite is never used
  5109                           
  5110     118A  0008               	return
  5111     118B                     __end_of_i2c_masterWrite:
  5112                           
  5113                           	psect	text18
  5114     1158                     __ptext18:	
  5115 ;; *************** function _i2c_masterStop *****************
  5116 ;; Defined at:
  5117 ;;		line 39 in file "i2c.c"
  5118 ;; Parameters:    Size  Location     Type
  5119 ;;		None
  5120 ;; Auto vars:     Size  Location     Type
  5121 ;;		None
  5122 ;; Return value:  Size  Location     Type
  5123 ;;                  1    wreg      void 
  5124 ;; Registers used:
  5125 ;;		wreg, status,2, status,0, pclath, cstack
  5126 ;; Tracked objects:
  5127 ;;		On entry : 0/0
  5128 ;;		On exit  : 0/0
  5129 ;;		Unchanged: 0/0
  5130 ;; Data sizes:     COMMON   BANK0   BANK1   BANK3   BANK2
  5131 ;;      Params:         0       0       0       0       0
  5132 ;;      Locals:         0       0       0       0       0
  5133 ;;      Temps:          0       0       0       0       0
  5134 ;;      Totals:         0       0       0       0       0
  5135 ;;Total ram usage:        0 bytes
  5136 ;; Hardware stack levels used: 1
  5137 ;; Hardware stack levels required when called: 1
  5138 ;; This function calls:
  5139 ;;		_i2c_masterWait
  5140 ;; This function is called by:
  5141 ;;		_io_expanderWrite
  5142 ;;		_rtc_readTime
  5143 ;;		_rtc_readDate
  5144 ;; This function uses a non-reentrant model
  5145 ;;
  5146                           
  5147     1158                     _i2c_masterStop:	
  5148                           ;psect for function _i2c_masterStop
  5149                           
  5150     1158                     l2496:	
  5151                           ;incstack = 0
  5152                           ; Regs used in _i2c_masterStop: [wreg+status,2+status,0+pclath+cstack]
  5153                           
  5154                           
  5155                           ;i2c.c: 40:     i2c_masterWait();
  5156     1158  160A  118A  21BB  160A  118A  	fcall	_i2c_masterWait
  5157     115D                     l2498:
  5158                           
  5159                           ;i2c.c: 41:     SSPCON2bits.PEN |= 1;
  5160     115D  1683               	bsf	3,5	;RP0=1, select bank1
  5161     115E  1303               	bcf	3,6	;RP1=0, select bank1
  5162     115F  1511               	bsf	17,2	;volatile
  5163     1160                     l45:
  5164     1160  0008               	return
  5165     1161                     __end_of_i2c_masterStop:
  5166                           
  5167                           	psect	text19
  5168     114F                     __ptext19:	
  5169 ;; *************** function _i2c_masterStart *****************
  5170 ;; Defined at:
  5171 ;;		line 23 in file "i2c.c"
  5172 ;; Parameters:    Size  Location     Type
  5173 ;;		None
  5174 ;; Auto vars:     Size  Location     Type
  5175 ;;		None
  5176 ;; Return value:  Size  Location     Type
  5177 ;;                  1    wreg      void 
  5178 ;; Registers used:
  5179 ;;		wreg, status,2, status,0, pclath, cstack
  5180 ;; Tracked objects:
  5181 ;;		On entry : 0/0
  5182 ;;		On exit  : 0/0
  5183 ;;		Unchanged: 0/0
  5184 ;; Data sizes:     COMMON   BANK0   BANK1   BANK3   BANK2
  5185 ;;      Params:         0       0       0       0       0
  5186 ;;      Locals:         0       0       0       0       0
  5187 ;;      Temps:          0       0       0       0       0
  5188 ;;      Totals:         0       0       0       0       0
  5189 ;;Total ram usage:        0 bytes
  5190 ;; Hardware stack levels used: 1
  5191 ;; Hardware stack levels required when called: 1
  5192 ;; This function calls:
  5193 ;;		_i2c_masterWait
  5194 ;; This function is called by:
  5195 ;;		_io_expanderWrite
  5196 ;;		_rtc_readTime
  5197 ;;		_rtc_readDate
  5198 ;; This function uses a non-reentrant model
  5199 ;;
  5200                           
  5201     114F                     _i2c_masterStart:	
  5202                           ;psect for function _i2c_masterStart
  5203                           
  5204     114F                     l2492:	
  5205                           ;incstack = 0
  5206                           ; Regs used in _i2c_masterStart: [wreg+status,2+status,0+pclath+cstack]
  5207                           
  5208                           
  5209                           ;i2c.c: 24:     i2c_masterWait();
  5210     114F  160A  118A  21BB  160A  118A  	fcall	_i2c_masterWait
  5211     1154                     l2494:
  5212                           
  5213                           ;i2c.c: 25:     SSPCON2bits.SEN |= 1;
  5214     1154  1683               	bsf	3,5	;RP0=1, select bank1
  5215     1155  1303               	bcf	3,6	;RP1=0, select bank1
  5216     1156  1411               	bsf	17,0	;volatile
  5217     1157                     l36:
  5218     1157  0008               	return
  5219     1158                     __end_of_i2c_masterStart:
  5220                           
  5221                           	psect	text20
  5222     11BB                     __ptext20:	
  5223 ;; *************** function _i2c_masterWait *****************
  5224 ;; Defined at:
  5225 ;;		line 16 in file "i2c.c"
  5226 ;; Parameters:    Size  Location     Type
  5227 ;;		None
  5228 ;; Auto vars:     Size  Location     Type
  5229 ;;		None
  5230 ;; Return value:  Size  Location     Type
  5231 ;;                  1    wreg      void 
  5232 ;; Registers used:
  5233 ;;		wreg, status,2
  5234 ;; Tracked objects:
  5235 ;;		On entry : 0/0
  5236 ;;		On exit  : 0/0
  5237 ;;		Unchanged: 0/0
  5238 ;; Data sizes:     COMMON   BANK0   BANK1   BANK3   BANK2
  5239 ;;      Params:         0       0       0       0       0
  5240 ;;      Locals:         0       0       0       0       0
  5241 ;;      Temps:          0       0       0       0       0
  5242 ;;      Totals:         0       0       0       0       0
  5243 ;;Total ram usage:        0 bytes
  5244 ;; Hardware stack levels used: 1
  5245 ;; This function calls:
  5246 ;;		Nothing
  5247 ;; This function is called by:
  5248 ;;		_i2c_masterStart
  5249 ;;		_i2c_masterRepeatedStart
  5250 ;;		_i2c_masterStop
  5251 ;;		_i2c_masterWrite
  5252 ;;		_i2c_readByte
  5253 ;;		_i2c_masterRead
  5254 ;; This function uses a non-reentrant model
  5255 ;;
  5256                           
  5257     11BB                     _i2c_masterWait:	
  5258                           ;psect for function _i2c_masterWait
  5259                           
  5260     11BB                     l2488:	
  5261                           ;incstack = 0
  5262                           ; Regs used in _i2c_masterWait: [wreg+status,2]
  5263                           
  5264     11BB                     l30:	
  5265                           ;i2c.c: 17:     while((SSPSTAT & 0b00000100) || (SSPCON2 & 0b00011111));
  5266                           
  5267     11BB  1683               	bsf	3,5	;RP0=1, select bank1
  5268     11BC  1303               	bcf	3,6	;RP1=0, select bank1
  5269     11BD  1914               	btfsc	20,2	;volatile
  5270     11BE  29C0               	goto	u2521
  5271     11BF  29C1               	goto	u2520
  5272     11C0                     u2521:
  5273     11C0  29BB               	goto	l30
  5274     11C1                     u2520:
  5275     11C1                     l2490:
  5276     11C1  0811               	movf	17,w	;volatile
  5277     11C2  391F               	andlw	31
  5278     11C3  1D03               	btfss	3,2
  5279     11C4  29C6               	goto	u2531
  5280     11C5  29C7               	goto	u2530
  5281     11C6                     u2531:
  5282     11C6  29BB               	goto	l30
  5283     11C7                     u2530:
  5284     11C7                     l33:
  5285     11C7  0008               	return
  5286     11C8                     __end_of_i2c_masterWait:
  5287                           
  5288                           	psect	text21
  5289     1197                     __ptext21:	
  5290 ;; *************** function _i2c_masterInit *****************
  5291 ;; Defined at:
  5292 ;;		line 7 in file "i2c.c"
  5293 ;; Parameters:    Size  Location     Type
  5294 ;;		None
  5295 ;; Auto vars:     Size  Location     Type
  5296 ;;		None
  5297 ;; Return value:  Size  Location     Type
  5298 ;;                  1    wreg      void 
  5299 ;; Registers used:
  5300 ;;		wreg, status,2, status,0
  5301 ;; Tracked objects:
  5302 ;;		On entry : 0/0
  5303 ;;		On exit  : 0/0
  5304 ;;		Unchanged: 0/0
  5305 ;; Data sizes:     COMMON   BANK0   BANK1   BANK3   BANK2
  5306 ;;      Params:         0       0       0       0       0
  5307 ;;      Locals:         0       0       0       0       0
  5308 ;;      Temps:          0       0       0       0       0
  5309 ;;      Totals:         0       0       0       0       0
  5310 ;;Total ram usage:        0 bytes
  5311 ;; Hardware stack levels used: 1
  5312 ;; This function calls:
  5313 ;;		Nothing
  5314 ;; This function is called by:
  5315 ;;		_main
  5316 ;; This function uses a non-reentrant model
  5317 ;;
  5318                           
  5319     1197                     _i2c_masterInit:	
  5320                           ;psect for function _i2c_masterInit
  5321                           
  5322     1197                     l3268:	
  5323                           ;incstack = 0
  5324                           ; Regs used in _i2c_masterInit: [wreg+status,2+status,0]
  5325                           
  5326                           
  5327                           ;i2c.c: 8:     SSPCONbits.SSPM |= 0b1000;
  5328     1197  3008               	movlw	8
  5329     1198  1283               	bcf	3,5	;RP0=0, select bank0
  5330     1199  1303               	bcf	3,6	;RP1=0, select bank0
  5331     119A  0494               	iorwf	20,f	;volatile
  5332     119B                     l3270:
  5333                           
  5334                           ;i2c.c: 9:     SSPCONbits.SSPEN |= 1;
  5335     119B  1694               	bsf	20,5	;volatile
  5336     119C                     l3272:
  5337                           
  5338                           ;i2c.c: 10:     SSPCON2 &= 0x00;
  5339     119C  1683               	bsf	3,5	;RP0=1, select bank1
  5340     119D  1303               	bcf	3,6	;RP1=0, select bank1
  5341     119E  0191               	clrf	17	;volatile
  5342     119F                     l3274:
  5343                           
  5344                           ;i2c.c: 12:     SSPSTAT &= 0x00;
  5345     119F  0194               	clrf	20	;volatile
  5346     11A0                     l3276:
  5347                           
  5348                           ;i2c.c: 13:     SSPADD = ((8000000/4)/10000)-1;
  5349     11A0  30C7               	movlw	199
  5350     11A1  0093               	movwf	19	;volatile
  5351     11A2                     l27:
  5352     11A2  0008               	return
  5353     11A3                     __end_of_i2c_masterInit:
  5354                           
  5355                           	psect	text22
  5356     0817                     __ptext22:	
  5357 ;; *************** function _LM35_readData *****************
  5358 ;; Defined at:
  5359 ;;		line 55 in file "sensors.c"
  5360 ;; Parameters:    Size  Location     Type
  5361 ;;		None
  5362 ;; Auto vars:     Size  Location     Type
  5363 ;;  temperature     4   65[BANK0 ] float 
  5364 ;; Return value:  Size  Location     Type
  5365 ;;                  2   60[BANK0 ] int 
  5366 ;; Registers used:
  5367 ;;		wreg, status,2, status,0, btemp+1, pclath, cstack
  5368 ;; Tracked objects:
  5369 ;;		On entry : 0/0
  5370 ;;		On exit  : 0/0
  5371 ;;		Unchanged: 0/0
  5372 ;; Data sizes:     COMMON   BANK0   BANK1   BANK3   BANK2
  5373 ;;      Params:         0       2       0       0       0
  5374 ;;      Locals:         0       4       0       0       0
  5375 ;;      Temps:          0       3       0       0       0
  5376 ;;      Totals:         0       9       0       0       0
  5377 ;;Total ram usage:        9 bytes
  5378 ;; Hardware stack levels used: 1
  5379 ;; Hardware stack levels required when called: 2
  5380 ;; This function calls:
  5381 ;;		___fldiv
  5382 ;;		___flmul
  5383 ;;		___fltol
  5384 ;;		___wmul
  5385 ;;		___xxtofl
  5386 ;; This function is called by:
  5387 ;;		_main
  5388 ;; This function uses a non-reentrant model
  5389 ;;
  5390                           
  5391     0817                     _LM35_readData:	
  5392                           ;psect for function _LM35_readData
  5393                           
  5394     0817                     l3416:	
  5395                           ;incstack = 0
  5396                           ; Regs used in _LM35_readData: [wreg+status,2+status,0+btemp+1+pclath+cstack]
  5397                           
  5398                           
  5399                           ;sensors.c: 56:     ADCON0bits.GO_nDONE |= 1;
  5400     0817  1283               	bcf	3,5	;RP0=0, select bank0
  5401     0818  1303               	bcf	3,6	;RP1=0, select bank0
  5402     0819  149F               	bsf	31,1	;volatile
  5403     081A                     l385:	
  5404                           ;sensors.c: 57:     while(ADCON0bits.GO_nDONE);
  5405                           
  5406     081A  189F               	btfsc	31,1	;volatile
  5407     081B  281D               	goto	u4421
  5408     081C  281E               	goto	u4420
  5409     081D                     u4421:
  5410     081D  281A               	goto	l385
  5411     081E                     u4420:
  5412     081E                     l3418:
  5413                           
  5414                           ;sensors.c: 58:     adc_val = ADRESH << 2;
  5415     081E  081E               	movf	30,w	;volatile
  5416     081F  00DE               	movwf	??_LM35_readData
  5417     0820  01DF               	clrf	??_LM35_readData+1
  5418     0821  1003               	clrc
  5419     0822  0DDE               	rlf	??_LM35_readData,f
  5420     0823  0DDF               	rlf	??_LM35_readData+1,f
  5421     0824  1003               	clrc
  5422     0825  0DDE               	rlf	??_LM35_readData,f
  5423     0826  0DDF               	rlf	??_LM35_readData+1,f
  5424     0827  085E               	movf	??_LM35_readData,w
  5425     0828  1683               	bsf	3,5	;RP0=1, select bank1
  5426     0829  1303               	bcf	3,6	;RP1=0, select bank1
  5427     082A  00D6               	movwf	_adc_val^(0+128)
  5428     082B  1283               	bcf	3,5	;RP0=0, select bank0
  5429     082C  1303               	bcf	3,6	;RP1=0, select bank0
  5430     082D  085F               	movf	??_LM35_readData+1,w
  5431     082E  1683               	bsf	3,5	;RP0=1, select bank1
  5432     082F  1303               	bcf	3,6	;RP1=0, select bank1
  5433     0830  00D7               	movwf	(_adc_val+1)^(0+128)
  5434                           
  5435                           ;sensors.c: 59:     adc_val1 = ADRESL >> 6;
  5436     0831  081E               	movf	30,w	;volatile
  5437     0832  1283               	bcf	3,5	;RP0=0, select bank0
  5438     0833  1303               	bcf	3,6	;RP1=0, select bank0
  5439     0834  00DE               	movwf	??_LM35_readData
  5440     0835  3006               	movlw	6
  5441     0836                     u4435:
  5442     0836  1003               	clrc
  5443     0837  0CDE               	rrf	??_LM35_readData,f
  5444     0838  3EFF               	addlw	-1
  5445     0839  1D03               	skipz
  5446     083A  2836               	goto	u4435
  5447     083B  085E               	movf	??_LM35_readData,w
  5448     083C  00DF               	movwf	??_LM35_readData+1
  5449     083D  01E0               	clrf	??_LM35_readData+2
  5450     083E  085F               	movf	??_LM35_readData+1,w
  5451     083F  1683               	bsf	3,5	;RP0=1, select bank1
  5452     0840  1303               	bcf	3,6	;RP1=0, select bank1
  5453     0841  00D4               	movwf	_adc_val1^(0+128)
  5454     0842  1283               	bcf	3,5	;RP0=0, select bank0
  5455     0843  1303               	bcf	3,6	;RP1=0, select bank0
  5456     0844  0860               	movf	??_LM35_readData+2,w
  5457     0845  1683               	bsf	3,5	;RP0=1, select bank1
  5458     0846  1303               	bcf	3,6	;RP1=0, select bank1
  5459     0847  00D5               	movwf	(_adc_val1+1)^(0+128)
  5460     0848                     l3420:
  5461                           
  5462                           ;sensors.c: 62:     adc_val += adc_val1;
  5463     0848  0854               	movf	_adc_val1^(0+128),w
  5464     0849  07D6               	addwf	_adc_val^(0+128),f
  5465     084A  1803               	skipnc
  5466     084B  0AD7               	incf	(_adc_val+1)^(0+128),f
  5467     084C  0855               	movf	(_adc_val1+1)^(0+128),w
  5468     084D  07D7               	addwf	(_adc_val+1)^(0+128),f
  5469     084E                     l3422:
  5470                           
  5471                           ;sensors.c: 63:     float temperature = adc_val * 5;
  5472     084E  3005               	movlw	5
  5473     084F  00F2               	movwf	___wmul@multiplicand
  5474     0850  3000               	movlw	0
  5475     0851  00F3               	movwf	___wmul@multiplicand+1
  5476     0852  0857               	movf	(_adc_val+1)^(0+128),w
  5477     0853  00F1               	movwf	___wmul@multiplier+1
  5478     0854  0856               	movf	_adc_val^(0+128),w
  5479     0855  00F0               	movwf	___wmul@multiplier
  5480     0856  160A  118A  22DC  120A  158A  	fcall	___wmul
  5481     085B  0870               	movf	?___wmul,w
  5482     085C  00F6               	movwf	___xxtofl@val
  5483     085D  0871               	movf	?___wmul+1,w
  5484     085E  00F7               	movwf	___xxtofl@val+1
  5485     085F  3000               	movlw	0
  5486     0860  1BF7               	btfsc	___xxtofl@val+1,7
  5487     0861  30FF               	movlw	255
  5488     0862  00F8               	movwf	___xxtofl@val+2
  5489     0863  00F9               	movwf	___xxtofl@val+3
  5490     0864  3001               	movlw	1
  5491     0865  120A  158A  20BE  120A  158A  	fcall	___xxtofl
  5492     086A  0879               	movf	?___xxtofl+3,w
  5493     086B  1283               	bcf	3,5	;RP0=0, select bank0
  5494     086C  1303               	bcf	3,6	;RP1=0, select bank0
  5495     086D  00E4               	movwf	LM35_readData@temperature+3
  5496     086E  0878               	movf	?___xxtofl+2,w
  5497     086F  00E3               	movwf	LM35_readData@temperature+2
  5498     0870  0877               	movf	?___xxtofl+1,w
  5499     0871  00E2               	movwf	LM35_readData@temperature+1
  5500     0872  0876               	movf	?___xxtofl,w
  5501     0873  00E1               	movwf	LM35_readData@temperature
  5502     0874                     l3424:
  5503                           
  5504                           ;sensors.c: 64:     temperature = temperature / 1024 * 100;
  5505     0874  3042               	movlw	66
  5506     0875  00C5               	movwf	___flmul@b+3
  5507     0876  30C8               	movlw	200
  5508     0877  00C4               	movwf	___flmul@b+2
  5509     0878  3000               	movlw	0
  5510     0879  00C3               	movwf	___flmul@b+1
  5511     087A  3000               	movlw	0
  5512     087B  00C2               	movwf	___flmul@b
  5513     087C  3044               	movlw	68
  5514     087D  00AB               	movwf	___fldiv@a+3
  5515     087E  3080               	movlw	128
  5516     087F  00AA               	movwf	___fldiv@a+2
  5517     0880  3000               	movlw	0
  5518     0881  00A9               	movwf	___fldiv@a+1
  5519     0882  3000               	movlw	0
  5520     0883  00A8               	movwf	___fldiv@a
  5521     0884  0864               	movf	LM35_readData@temperature+3,w
  5522     0885  00AF               	movwf	___fldiv@b+3
  5523     0886  0863               	movf	LM35_readData@temperature+2,w
  5524     0887  00AE               	movwf	___fldiv@b+2
  5525     0888  0862               	movf	LM35_readData@temperature+1,w
  5526     0889  00AD               	movwf	___fldiv@b+1
  5527     088A  0861               	movf	LM35_readData@temperature,w
  5528     088B  00AC               	movwf	___fldiv@b
  5529     088C  120A  118A  202D  120A  158A  	fcall	___fldiv
  5530     0891  1283               	bcf	3,5	;RP0=0, select bank0
  5531     0892  1303               	bcf	3,6	;RP1=0, select bank0
  5532     0893  082B               	movf	?___fldiv+3,w
  5533     0894  00C9               	movwf	___flmul@a+3
  5534     0895  082A               	movf	?___fldiv+2,w
  5535     0896  00C8               	movwf	___flmul@a+2
  5536     0897  0829               	movf	?___fldiv+1,w
  5537     0898  00C7               	movwf	___flmul@a+1
  5538     0899  0828               	movf	?___fldiv,w
  5539     089A  00C6               	movwf	___flmul@a
  5540     089B  120A  158A  24BB  120A  158A  	fcall	___flmul
  5541     08A0  1283               	bcf	3,5	;RP0=0, select bank0
  5542     08A1  1303               	bcf	3,6	;RP1=0, select bank0
  5543     08A2  0845               	movf	?___flmul+3,w
  5544     08A3  00E4               	movwf	LM35_readData@temperature+3
  5545     08A4  0844               	movf	?___flmul+2,w
  5546     08A5  00E3               	movwf	LM35_readData@temperature+2
  5547     08A6  0843               	movf	?___flmul+1,w
  5548     08A7  00E2               	movwf	LM35_readData@temperature+1
  5549     08A8  0842               	movf	?___flmul,w
  5550     08A9  00E1               	movwf	LM35_readData@temperature
  5551     08AA                     l3426:
  5552                           
  5553                           ;sensors.c: 66:     return (int)temperature;
  5554     08AA  0864               	movf	LM35_readData@temperature+3,w
  5555     08AB  00F3               	movwf	___fltol@f1+3
  5556     08AC  0863               	movf	LM35_readData@temperature+2,w
  5557     08AD  00F2               	movwf	___fltol@f1+2
  5558     08AE  0862               	movf	LM35_readData@temperature+1,w
  5559     08AF  00F1               	movwf	___fltol@f1+1
  5560     08B0  0861               	movf	LM35_readData@temperature,w
  5561     08B1  00F0               	movwf	___fltol@f1
  5562     08B2  160A  118A  24D6  120A  158A  	fcall	___fltol
  5563     08B7  0871               	movf	?___fltol+1,w
  5564     08B8  1283               	bcf	3,5	;RP0=0, select bank0
  5565     08B9  1303               	bcf	3,6	;RP1=0, select bank0
  5566     08BA  00DD               	movwf	?_LM35_readData+1
  5567     08BB  0870               	movf	?___fltol,w
  5568     08BC  00DC               	movwf	?_LM35_readData
  5569     08BD                     l388:
  5570     08BD  0008               	return
  5571     08BE                     __end_of_LM35_readData:
  5572                           
  5573                           	psect	text23
  5574     1175                     __ptext23:	
  5575 ;; *************** function _LM35_initADC *****************
  5576 ;; Defined at:
  5577 ;;		line 49 in file "sensors.c"
  5578 ;; Parameters:    Size  Location     Type
  5579 ;;		None
  5580 ;; Auto vars:     Size  Location     Type
  5581 ;;		None
  5582 ;; Return value:  Size  Location     Type
  5583 ;;                  1    wreg      void 
  5584 ;; Registers used:
  5585 ;;		wreg, status,2
  5586 ;; Tracked objects:
  5587 ;;		On entry : 0/0
  5588 ;;		On exit  : 0/0
  5589 ;;		Unchanged: 0/0
  5590 ;; Data sizes:     COMMON   BANK0   BANK1   BANK3   BANK2
  5591 ;;      Params:         0       0       0       0       0
  5592 ;;      Locals:         0       0       0       0       0
  5593 ;;      Temps:          0       0       0       0       0
  5594 ;;      Totals:         0       0       0       0       0
  5595 ;;Total ram usage:        0 bytes
  5596 ;; Hardware stack levels used: 1
  5597 ;; This function calls:
  5598 ;;		Nothing
  5599 ;; This function is called by:
  5600 ;;		_main
  5601 ;; This function uses a non-reentrant model
  5602 ;;
  5603                           
  5604     1175                     _LM35_initADC:	
  5605                           ;psect for function _LM35_initADC
  5606                           
  5607     1175                     l3410:	
  5608                           ;incstack = 0
  5609                           ; Regs used in _LM35_initADC: [wreg+status,2]
  5610                           
  5611                           
  5612                           ;sensors.c: 50:     TRISAbits.TRISA0 |= 1;
  5613     1175  1683               	bsf	3,5	;RP0=1, select bank1
  5614     1176  1303               	bcf	3,6	;RP1=0, select bank1
  5615     1177  1405               	bsf	5,0	;volatile
  5616     1178                     l3412:
  5617                           
  5618                           ;sensors.c: 51:     ADCON0 = 0x01;
  5619     1178  3001               	movlw	1
  5620     1179  1283               	bcf	3,5	;RP0=0, select bank0
  5621     117A  1303               	bcf	3,6	;RP1=0, select bank0
  5622     117B  009F               	movwf	31	;volatile
  5623     117C                     l3414:
  5624                           
  5625                           ;sensors.c: 52:     ADCON1 = 0x00;
  5626     117C  1683               	bsf	3,5	;RP0=1, select bank1
  5627     117D  1303               	bcf	3,6	;RP1=0, select bank1
  5628     117E  019F               	clrf	31	;volatile
  5629     117F                     l382:
  5630     117F  0008               	return
  5631     1180                     __end_of_LM35_initADC:
  5632                           
  5633                           	psect	text24
  5634     1369                     __ptext24:	
  5635 ;; *************** function _LDR1_readData *****************
  5636 ;; Defined at:
  5637 ;;		line 106 in file "sensors.c"
  5638 ;; Parameters:    Size  Location     Type
  5639 ;;		None
  5640 ;; Auto vars:     Size  Location     Type
  5641 ;;		None
  5642 ;; Return value:  Size  Location     Type
  5643 ;;                  2    8[COMMON] int 
  5644 ;; Registers used:
  5645 ;;		wreg, status,2, status,0, btemp+1, pclath, cstack
  5646 ;; Tracked objects:
  5647 ;;		On entry : 0/0
  5648 ;;		On exit  : 0/0
  5649 ;;		Unchanged: 0/0
  5650 ;; Data sizes:     COMMON   BANK0   BANK1   BANK3   BANK2
  5651 ;;      Params:         2       0       0       0       0
  5652 ;;      Locals:         0       0       0       0       0
  5653 ;;      Temps:          3       0       0       0       0
  5654 ;;      Totals:         5       0       0       0       0
  5655 ;;Total ram usage:        5 bytes
  5656 ;; Hardware stack levels used: 1
  5657 ;; Hardware stack levels required when called: 1
  5658 ;; This function calls:
  5659 ;;		___awdiv
  5660 ;; This function is called by:
  5661 ;;		_main
  5662 ;; This function uses a non-reentrant model
  5663 ;;
  5664                           
  5665     1369                     _LDR1_readData:	
  5666                           ;psect for function _LDR1_readData
  5667                           
  5668     1369                     l3456:	
  5669                           ;incstack = 0
  5670                           ; Regs used in _LDR1_readData: [wreg+status,2+status,0+btemp+1+pclath+cstack]
  5671                           
  5672                           
  5673                           ;sensors.c: 107:    ADCON0bits.GO_nDONE |= 1;
  5674     1369  1283               	bcf	3,5	;RP0=0, select bank0
  5675     136A  1303               	bcf	3,6	;RP1=0, select bank0
  5676     136B  149F               	bsf	31,1	;volatile
  5677     136C                     l411:	
  5678                           ;sensors.c: 108:    while(ADCON0bits.GO_nDONE);
  5679                           
  5680     136C  189F               	btfsc	31,1	;volatile
  5681     136D  2B6F               	goto	u4461
  5682     136E  2B70               	goto	u4460
  5683     136F                     u4461:
  5684     136F  2B6C               	goto	l411
  5685     1370                     u4460:
  5686     1370                     l3458:
  5687                           
  5688                           ;sensors.c: 109:    adc_val = ADRESH << 2;
  5689     1370  081E               	movf	30,w	;volatile
  5690     1371  00FA               	movwf	??_LDR1_readData
  5691     1372  01FB               	clrf	??_LDR1_readData+1
  5692     1373  1003               	clrc
  5693     1374  0DFA               	rlf	??_LDR1_readData,f
  5694     1375  0DFB               	rlf	??_LDR1_readData+1,f
  5695     1376  1003               	clrc
  5696     1377  0DFA               	rlf	??_LDR1_readData,f
  5697     1378  0DFB               	rlf	??_LDR1_readData+1,f
  5698     1379  087A               	movf	??_LDR1_readData,w
  5699     137A  1683               	bsf	3,5	;RP0=1, select bank1
  5700     137B  1303               	bcf	3,6	;RP1=0, select bank1
  5701     137C  00D6               	movwf	_adc_val^(0+128)
  5702     137D  087B               	movf	??_LDR1_readData+1,w
  5703     137E  00D7               	movwf	(_adc_val+1)^(0+128)
  5704                           
  5705                           ;sensors.c: 110:    adc_val1 = ADRESL >> 6;
  5706     137F  081E               	movf	30,w	;volatile
  5707     1380  00FA               	movwf	??_LDR1_readData
  5708     1381  3006               	movlw	6
  5709     1382                     u4475:
  5710     1382  1003               	clrc
  5711     1383  0CFA               	rrf	??_LDR1_readData,f
  5712     1384  3EFF               	addlw	-1
  5713     1385  1D03               	skipz
  5714     1386  2B82               	goto	u4475
  5715     1387  087A               	movf	??_LDR1_readData,w
  5716     1388  00FB               	movwf	??_LDR1_readData+1
  5717     1389  01FC               	clrf	??_LDR1_readData+2
  5718     138A  087B               	movf	??_LDR1_readData+1,w
  5719     138B  00D4               	movwf	_adc_val1^(0+128)
  5720     138C  087C               	movf	??_LDR1_readData+2,w
  5721     138D  00D5               	movwf	(_adc_val1+1)^(0+128)
  5722                           
  5723                           ;sensors.c: 112:    adc_val = adc_val + adc_val1;
  5724     138E  0854               	movf	_adc_val1^(0+128),w
  5725     138F  0756               	addwf	_adc_val^(0+128),w
  5726     1390  00D6               	movwf	_adc_val^(0+128)
  5727     1391  0855               	movf	(_adc_val1+1)^(0+128),w
  5728     1392  1803               	skipnc
  5729     1393  0A55               	incf	(_adc_val1+1)^(0+128),w
  5730     1394  0757               	addwf	(_adc_val+1)^(0+128),w
  5731     1395  00D7               	movwf	(_adc_val+1)^(0+128)
  5732     1396                     l3460:
  5733                           
  5734                           ;sensors.c: 113:    adc_val = (adc_val / 3) - 1;
  5735     1396  3003               	movlw	3
  5736     1397  00F0               	movwf	___awdiv@divisor
  5737     1398  3000               	movlw	0
  5738     1399  00F1               	movwf	___awdiv@divisor+1
  5739     139A  0857               	movf	(_adc_val+1)^(0+128),w
  5740     139B  00F3               	movwf	___awdiv@dividend+1
  5741     139C  0856               	movf	_adc_val^(0+128),w
  5742     139D  00F2               	movwf	___awdiv@dividend
  5743     139E  160A  118A  246F  160A  118A  	fcall	___awdiv
  5744     13A3  0870               	movf	?___awdiv,w
  5745     13A4  3EFF               	addlw	255
  5746     13A5  1683               	bsf	3,5	;RP0=1, select bank1
  5747     13A6  1303               	bcf	3,6	;RP1=0, select bank1
  5748     13A7  00D6               	movwf	_adc_val^(0+128)
  5749     13A8  0871               	movf	?___awdiv+1,w
  5750     13A9  1803               	skipnc
  5751     13AA  3E01               	addlw	1
  5752     13AB  3EFF               	addlw	255
  5753     13AC  00D7               	movwf	(_adc_val+1)^(0+128)
  5754     13AD                     l3462:
  5755                           
  5756                           ;sensors.c: 115:    return adc_val;
  5757     13AD  0857               	movf	(_adc_val+1)^(0+128),w
  5758     13AE  00F9               	movwf	?_LDR1_readData+1
  5759     13AF  0856               	movf	_adc_val^(0+128),w
  5760     13B0  00F8               	movwf	?_LDR1_readData
  5761     13B1                     l414:
  5762     13B1  0008               	return
  5763     13B2                     __end_of_LDR1_readData:
  5764                           
  5765                           	psect	text25
  5766     146F                     __ptext25:	
  5767 ;; *************** function ___awdiv *****************
  5768 ;; Defined at:
  5769 ;;		line 5 in file "E:\XC8 Compiler\pic\sources\c90\common\awdiv.c"
  5770 ;; Parameters:    Size  Location     Type
  5771 ;;  divisor         2    0[COMMON] int 
  5772 ;;  dividend        2    2[COMMON] int 
  5773 ;; Auto vars:     Size  Location     Type
  5774 ;;  quotient        2    6[COMMON] int 
  5775 ;;  sign            1    5[COMMON] unsigned char 
  5776 ;;  counter         1    4[COMMON] unsigned char 
  5777 ;; Return value:  Size  Location     Type
  5778 ;;                  2    0[COMMON] int 
  5779 ;; Registers used:
  5780 ;;		wreg, status,2, status,0, btemp+1
  5781 ;; Tracked objects:
  5782 ;;		On entry : 0/0
  5783 ;;		On exit  : 0/0
  5784 ;;		Unchanged: 0/0
  5785 ;; Data sizes:     COMMON   BANK0   BANK1   BANK3   BANK2
  5786 ;;      Params:         4       0       0       0       0
  5787 ;;      Locals:         4       0       0       0       0
  5788 ;;      Temps:          0       0       0       0       0
  5789 ;;      Totals:         8       0       0       0       0
  5790 ;;Total ram usage:        8 bytes
  5791 ;; Hardware stack levels used: 1
  5792 ;; This function calls:
  5793 ;;		Nothing
  5794 ;; This function is called by:
  5795 ;;		_printInteger
  5796 ;;		_LDR1_readData
  5797 ;; This function uses a non-reentrant model
  5798 ;;
  5799                           
  5800     146F                     ___awdiv:	
  5801                           ;psect for function ___awdiv
  5802                           
  5803     146F                     l2898:	
  5804                           ;incstack = 0
  5805                           ; Regs used in ___awdiv: [wreg+status,2+status,0+btemp+1]
  5806                           
  5807     146F  01F5               	clrf	___awdiv@sign
  5808     1470                     l2900:
  5809     1470  1FF1               	btfss	___awdiv@divisor+1,7
  5810     1471  2C73               	goto	u3431
  5811     1472  2C74               	goto	u3430
  5812     1473                     u3431:
  5813     1473  2C7B               	goto	l2906
  5814     1474                     u3430:
  5815     1474                     l2902:
  5816     1474  09F0               	comf	___awdiv@divisor,f
  5817     1475  09F1               	comf	___awdiv@divisor+1,f
  5818     1476  0AF0               	incf	___awdiv@divisor,f
  5819     1477  1903               	skipnz
  5820     1478  0AF1               	incf	___awdiv@divisor+1,f
  5821     1479                     l2904:
  5822     1479  01F5               	clrf	___awdiv@sign
  5823     147A  0AF5               	incf	___awdiv@sign,f
  5824     147B                     l2906:
  5825     147B  1FF3               	btfss	___awdiv@dividend+1,7
  5826     147C  2C7E               	goto	u3441
  5827     147D  2C7F               	goto	u3440
  5828     147E                     u3441:
  5829     147E  2C88               	goto	l2912
  5830     147F                     u3440:
  5831     147F                     l2908:
  5832     147F  09F2               	comf	___awdiv@dividend,f
  5833     1480  09F3               	comf	___awdiv@dividend+1,f
  5834     1481  0AF2               	incf	___awdiv@dividend,f
  5835     1482  1903               	skipnz
  5836     1483  0AF3               	incf	___awdiv@dividend+1,f
  5837     1484                     l2910:
  5838     1484  3001               	movlw	1
  5839     1485  00FF               	movwf	btemp+1
  5840     1486  087F               	movf	btemp+1,w
  5841     1487  06F5               	xorwf	___awdiv@sign,f
  5842     1488                     l2912:
  5843     1488  01F6               	clrf	___awdiv@quotient
  5844     1489  01F7               	clrf	___awdiv@quotient+1
  5845     148A                     l2914:
  5846     148A  0870               	movf	___awdiv@divisor,w
  5847     148B  0471               	iorwf	___awdiv@divisor+1,w
  5848     148C  1903               	btfsc	3,2
  5849     148D  2C8F               	goto	u3451
  5850     148E  2C90               	goto	u3450
  5851     148F                     u3451:
  5852     148F  2CC7               	goto	l2934
  5853     1490                     u3450:
  5854     1490                     l2916:
  5855     1490  01F4               	clrf	___awdiv@counter
  5856     1491  0AF4               	incf	___awdiv@counter,f
  5857     1492  2C9E               	goto	l2922
  5858     1493                     l2918:
  5859     1493  3001               	movlw	1
  5860     1494                     u3465:
  5861     1494  1003               	clrc
  5862     1495  0DF0               	rlf	___awdiv@divisor,f
  5863     1496  0DF1               	rlf	___awdiv@divisor+1,f
  5864     1497  3EFF               	addlw	-1
  5865     1498  1D03               	skipz
  5866     1499  2C94               	goto	u3465
  5867     149A                     l2920:
  5868     149A  3001               	movlw	1
  5869     149B  00FF               	movwf	btemp+1
  5870     149C  087F               	movf	btemp+1,w
  5871     149D  07F4               	addwf	___awdiv@counter,f
  5872     149E                     l2922:
  5873     149E  1FF1               	btfss	___awdiv@divisor+1,7
  5874     149F  2CA1               	goto	u3471
  5875     14A0  2CA2               	goto	u3470
  5876     14A1                     u3471:
  5877     14A1  2C93               	goto	l2918
  5878     14A2                     u3470:
  5879     14A2                     l2924:
  5880     14A2  3001               	movlw	1
  5881     14A3                     u3485:
  5882     14A3  1003               	clrc
  5883     14A4  0DF6               	rlf	___awdiv@quotient,f
  5884     14A5  0DF7               	rlf	___awdiv@quotient+1,f
  5885     14A6  3EFF               	addlw	-1
  5886     14A7  1D03               	skipz
  5887     14A8  2CA3               	goto	u3485
  5888     14A9  0871               	movf	___awdiv@divisor+1,w
  5889     14AA  0273               	subwf	___awdiv@dividend+1,w
  5890     14AB  1D03               	skipz
  5891     14AC  2CAF               	goto	u3495
  5892     14AD  0870               	movf	___awdiv@divisor,w
  5893     14AE  0272               	subwf	___awdiv@dividend,w
  5894     14AF                     u3495:
  5895     14AF  1C03               	skipc
  5896     14B0  2CB2               	goto	u3491
  5897     14B1  2CB3               	goto	u3490
  5898     14B2                     u3491:
  5899     14B2  2CBA               	goto	l2930
  5900     14B3                     u3490:
  5901     14B3                     l2926:
  5902     14B3  0870               	movf	___awdiv@divisor,w
  5903     14B4  02F2               	subwf	___awdiv@dividend,f
  5904     14B5  0871               	movf	___awdiv@divisor+1,w
  5905     14B6  1C03               	skipc
  5906     14B7  03F3               	decf	___awdiv@dividend+1,f
  5907     14B8  02F3               	subwf	___awdiv@dividend+1,f
  5908     14B9                     l2928:
  5909     14B9  1476               	bsf	___awdiv@quotient,0
  5910     14BA                     l2930:
  5911     14BA  3001               	movlw	1
  5912     14BB                     u3505:
  5913     14BB  1003               	clrc
  5914     14BC  0CF1               	rrf	___awdiv@divisor+1,f
  5915     14BD  0CF0               	rrf	___awdiv@divisor,f
  5916     14BE  3EFF               	addlw	-1
  5917     14BF  1D03               	skipz
  5918     14C0  2CBB               	goto	u3505
  5919     14C1                     l2932:
  5920     14C1  3001               	movlw	1
  5921     14C2  02F4               	subwf	___awdiv@counter,f
  5922     14C3  1D03               	btfss	3,2
  5923     14C4  2CC6               	goto	u3511
  5924     14C5  2CC7               	goto	u3510
  5925     14C6                     u3511:
  5926     14C6  2CA2               	goto	l2924
  5927     14C7                     u3510:
  5928     14C7                     l2934:
  5929     14C7  0875               	movf	___awdiv@sign,w
  5930     14C8  1903               	btfsc	3,2
  5931     14C9  2CCB               	goto	u3521
  5932     14CA  2CCC               	goto	u3520
  5933     14CB                     u3521:
  5934     14CB  2CD1               	goto	l2938
  5935     14CC                     u3520:
  5936     14CC                     l2936:
  5937     14CC  09F6               	comf	___awdiv@quotient,f
  5938     14CD  09F7               	comf	___awdiv@quotient+1,f
  5939     14CE  0AF6               	incf	___awdiv@quotient,f
  5940     14CF  1903               	skipnz
  5941     14D0  0AF7               	incf	___awdiv@quotient+1,f
  5942     14D1                     l2938:
  5943     14D1  0877               	movf	___awdiv@quotient+1,w
  5944     14D2  00F1               	movwf	?___awdiv+1
  5945     14D3  0876               	movf	___awdiv@quotient,w
  5946     14D4  00F0               	movwf	?___awdiv
  5947     14D5                     l653:
  5948     14D5  0008               	return
  5949     14D6                     __end_of___awdiv:
  5950                           
  5951                           	psect	text26
  5952     118B                     __ptext26:	
  5953 ;; *************** function _LDR1_initADC *****************
  5954 ;; Defined at:
  5955 ;;		line 99 in file "sensors.c"
  5956 ;; Parameters:    Size  Location     Type
  5957 ;;		None
  5958 ;; Auto vars:     Size  Location     Type
  5959 ;;		None
  5960 ;; Return value:  Size  Location     Type
  5961 ;;                  1    wreg      void 
  5962 ;; Registers used:
  5963 ;;		wreg, status,2
  5964 ;; Tracked objects:
  5965 ;;		On entry : 0/0
  5966 ;;		On exit  : 0/0
  5967 ;;		Unchanged: 0/0
  5968 ;; Data sizes:     COMMON   BANK0   BANK1   BANK3   BANK2
  5969 ;;      Params:         0       0       0       0       0
  5970 ;;      Locals:         0       0       0       0       0
  5971 ;;      Temps:          0       0       0       0       0
  5972 ;;      Totals:         0       0       0       0       0
  5973 ;;Total ram usage:        0 bytes
  5974 ;; Hardware stack levels used: 1
  5975 ;; This function calls:
  5976 ;;		Nothing
  5977 ;; This function is called by:
  5978 ;;		_main
  5979 ;; This function uses a non-reentrant model
  5980 ;;
  5981                           
  5982     118B                     _LDR1_initADC:	
  5983                           ;psect for function _LDR1_initADC
  5984                           
  5985     118B                     l3450:	
  5986                           ;incstack = 0
  5987                           ; Regs used in _LDR1_initADC: [wreg+status,2]
  5988                           
  5989                           
  5990                           ;sensors.c: 100:     TRISAbits.TRISA2 |=1;
  5991     118B  1683               	bsf	3,5	;RP0=1, select bank1
  5992     118C  1303               	bcf	3,6	;RP1=0, select bank1
  5993     118D  1505               	bsf	5,2	;volatile
  5994                           
  5995                           ;sensors.c: 101:     TRISDbits.TRISD2 &=0;
  5996     118E  1108               	bcf	8,2	;volatile
  5997     118F                     l3452:
  5998                           
  5999                           ;sensors.c: 102:     ADCON0 = 0x09;
  6000     118F  3009               	movlw	9
  6001     1190  1283               	bcf	3,5	;RP0=0, select bank0
  6002     1191  1303               	bcf	3,6	;RP1=0, select bank0
  6003     1192  009F               	movwf	31	;volatile
  6004     1193                     l3454:
  6005                           
  6006                           ;sensors.c: 103:     ADCON1 = 0x00;
  6007     1193  1683               	bsf	3,5	;RP0=1, select bank1
  6008     1194  1303               	bcf	3,6	;RP1=0, select bank1
  6009     1195  019F               	clrf	31	;volatile
  6010     1196                     l408:
  6011     1196  0008               	return
  6012     1197                     __end_of_LDR1_initADC:
  6013                           
  6014                           	psect	text27
  6015     0978                     __ptext27:	
  6016 ;; *************** function _HIH5030_readData *****************
  6017 ;; Defined at:
  6018 ;;		line 76 in file "sensors.c"
  6019 ;; Parameters:    Size  Location     Type
  6020 ;;		None
  6021 ;; Auto vars:     Size  Location     Type
  6022 ;;  x               4   69[BANK0 ] float 
  6023 ;;  RH              4   65[BANK0 ] float 
  6024 ;; Return value:  Size  Location     Type
  6025 ;;                  2   60[BANK0 ] int 
  6026 ;; Registers used:
  6027 ;;		wreg, status,2, status,0, btemp+1, pclath, cstack
  6028 ;; Tracked objects:
  6029 ;;		On entry : 0/0
  6030 ;;		On exit  : 0/0
  6031 ;;		Unchanged: 0/0
  6032 ;; Data sizes:     COMMON   BANK0   BANK1   BANK3   BANK2
  6033 ;;      Params:         0       2       0       0       0
  6034 ;;      Locals:         0       8       0       0       0
  6035 ;;      Temps:          0       3       0       0       0
  6036 ;;      Totals:         0      13       0       0       0
  6037 ;;Total ram usage:       13 bytes
  6038 ;; Hardware stack levels used: 1
  6039 ;; Hardware stack levels required when called: 3
  6040 ;; This function calls:
  6041 ;;		___fladd
  6042 ;;		___fldiv
  6043 ;;		___flmul
  6044 ;;		___wmul
  6045 ;;		___xxtofl
  6046 ;;		_roundFloat
  6047 ;; This function is called by:
  6048 ;;		_main
  6049 ;; This function uses a non-reentrant model
  6050 ;;
  6051                           
  6052     0978                     _HIH5030_readData:	
  6053                           ;psect for function _HIH5030_readData
  6054                           
  6055     0978                     l3436:	
  6056                           ;incstack = 0
  6057                           ; Regs used in _HIH5030_readData: [wreg+status,2+status,0+btemp+1+pclath+cstack]
  6058                           
  6059                           
  6060                           ;sensors.c: 77:    ADCON0bits.GO_nDONE |= 1;
  6061     0978  1283               	bcf	3,5	;RP0=0, select bank0
  6062     0979  1303               	bcf	3,6	;RP1=0, select bank0
  6063     097A  149F               	bsf	31,1	;volatile
  6064     097B                     l394:	
  6065                           ;sensors.c: 78:    while(ADCON0bits.GO_nDONE);
  6066                           
  6067     097B  189F               	btfsc	31,1	;volatile
  6068     097C  297E               	goto	u4441
  6069     097D  297F               	goto	u4440
  6070     097E                     u4441:
  6071     097E  297B               	goto	l394
  6072     097F                     u4440:
  6073     097F                     l3438:
  6074                           
  6075                           ;sensors.c: 79:    adc_val = ADRESH << 2;
  6076     097F  081E               	movf	30,w	;volatile
  6077     0980  00DE               	movwf	??_HIH5030_readData
  6078     0981  01DF               	clrf	??_HIH5030_readData+1
  6079     0982  1003               	clrc
  6080     0983  0DDE               	rlf	??_HIH5030_readData,f
  6081     0984  0DDF               	rlf	??_HIH5030_readData+1,f
  6082     0985  1003               	clrc
  6083     0986  0DDE               	rlf	??_HIH5030_readData,f
  6084     0987  0DDF               	rlf	??_HIH5030_readData+1,f
  6085     0988  085E               	movf	??_HIH5030_readData,w
  6086     0989  1683               	bsf	3,5	;RP0=1, select bank1
  6087     098A  1303               	bcf	3,6	;RP1=0, select bank1
  6088     098B  00D6               	movwf	_adc_val^(0+128)
  6089     098C  1283               	bcf	3,5	;RP0=0, select bank0
  6090     098D  1303               	bcf	3,6	;RP1=0, select bank0
  6091     098E  085F               	movf	??_HIH5030_readData+1,w
  6092     098F  1683               	bsf	3,5	;RP0=1, select bank1
  6093     0990  1303               	bcf	3,6	;RP1=0, select bank1
  6094     0991  00D7               	movwf	(_adc_val+1)^(0+128)
  6095                           
  6096                           ;sensors.c: 80:    adc_val1 = ADRESL >> 6;
  6097     0992  081E               	movf	30,w	;volatile
  6098     0993  1283               	bcf	3,5	;RP0=0, select bank0
  6099     0994  1303               	bcf	3,6	;RP1=0, select bank0
  6100     0995  00DE               	movwf	??_HIH5030_readData
  6101     0996  3006               	movlw	6
  6102     0997                     u4455:
  6103     0997  1003               	clrc
  6104     0998  0CDE               	rrf	??_HIH5030_readData,f
  6105     0999  3EFF               	addlw	-1
  6106     099A  1D03               	skipz
  6107     099B  2997               	goto	u4455
  6108     099C  085E               	movf	??_HIH5030_readData,w
  6109     099D  00DF               	movwf	??_HIH5030_readData+1
  6110     099E  01E0               	clrf	??_HIH5030_readData+2
  6111     099F  085F               	movf	??_HIH5030_readData+1,w
  6112     09A0  1683               	bsf	3,5	;RP0=1, select bank1
  6113     09A1  1303               	bcf	3,6	;RP1=0, select bank1
  6114     09A2  00D4               	movwf	_adc_val1^(0+128)
  6115     09A3  1283               	bcf	3,5	;RP0=0, select bank0
  6116     09A4  1303               	bcf	3,6	;RP1=0, select bank0
  6117     09A5  0860               	movf	??_HIH5030_readData+2,w
  6118     09A6  1683               	bsf	3,5	;RP0=1, select bank1
  6119     09A7  1303               	bcf	3,6	;RP1=0, select bank1
  6120     09A8  00D5               	movwf	(_adc_val1+1)^(0+128)
  6121                           
  6122                           ;sensors.c: 82:    adc_val = adc_val + adc_val1;
  6123     09A9  0854               	movf	_adc_val1^(0+128),w
  6124     09AA  0756               	addwf	_adc_val^(0+128),w
  6125     09AB  00D6               	movwf	_adc_val^(0+128)
  6126     09AC  0855               	movf	(_adc_val1+1)^(0+128),w
  6127     09AD  1803               	skipnc
  6128     09AE  0A55               	incf	(_adc_val1+1)^(0+128),w
  6129     09AF  0757               	addwf	(_adc_val+1)^(0+128),w
  6130     09B0  00D7               	movwf	(_adc_val+1)^(0+128)
  6131     09B1                     l3440:
  6132                           
  6133                           ;sensors.c: 83:    float x = adc_val * 5;
  6134     09B1  3005               	movlw	5
  6135     09B2  00F2               	movwf	___wmul@multiplicand
  6136     09B3  3000               	movlw	0
  6137     09B4  00F3               	movwf	___wmul@multiplicand+1
  6138     09B5  0857               	movf	(_adc_val+1)^(0+128),w
  6139     09B6  00F1               	movwf	___wmul@multiplier+1
  6140     09B7  0856               	movf	_adc_val^(0+128),w
  6141     09B8  00F0               	movwf	___wmul@multiplier
  6142     09B9  160A  118A  22DC  120A  158A  	fcall	___wmul
  6143     09BE  0870               	movf	?___wmul,w
  6144     09BF  00F6               	movwf	___xxtofl@val
  6145     09C0  0871               	movf	?___wmul+1,w
  6146     09C1  00F7               	movwf	___xxtofl@val+1
  6147     09C2  3000               	movlw	0
  6148     09C3  1BF7               	btfsc	___xxtofl@val+1,7
  6149     09C4  30FF               	movlw	255
  6150     09C5  00F8               	movwf	___xxtofl@val+2
  6151     09C6  00F9               	movwf	___xxtofl@val+3
  6152     09C7  3001               	movlw	1
  6153     09C8  120A  158A  20BE  120A  158A  	fcall	___xxtofl
  6154     09CD  0879               	movf	?___xxtofl+3,w
  6155     09CE  1283               	bcf	3,5	;RP0=0, select bank0
  6156     09CF  1303               	bcf	3,6	;RP1=0, select bank0
  6157     09D0  00E8               	movwf	HIH5030_readData@x+3
  6158     09D1  0878               	movf	?___xxtofl+2,w
  6159     09D2  00E7               	movwf	HIH5030_readData@x+2
  6160     09D3  0877               	movf	?___xxtofl+1,w
  6161     09D4  00E6               	movwf	HIH5030_readData@x+1
  6162     09D5  0876               	movf	?___xxtofl,w
  6163     09D6  00E5               	movwf	HIH5030_readData@x
  6164     09D7                     l3442:
  6165                           
  6166                           ;sensors.c: 84:    x = x / 1024;
  6167     09D7  3044               	movlw	68
  6168     09D8  00AB               	movwf	___fldiv@a+3
  6169     09D9  3080               	movlw	128
  6170     09DA  00AA               	movwf	___fldiv@a+2
  6171     09DB  3000               	movlw	0
  6172     09DC  00A9               	movwf	___fldiv@a+1
  6173     09DD  3000               	movlw	0
  6174     09DE  00A8               	movwf	___fldiv@a
  6175     09DF  0868               	movf	HIH5030_readData@x+3,w
  6176     09E0  00AF               	movwf	___fldiv@b+3
  6177     09E1  0867               	movf	HIH5030_readData@x+2,w
  6178     09E2  00AE               	movwf	___fldiv@b+2
  6179     09E3  0866               	movf	HIH5030_readData@x+1,w
  6180     09E4  00AD               	movwf	___fldiv@b+1
  6181     09E5  0865               	movf	HIH5030_readData@x,w
  6182     09E6  00AC               	movwf	___fldiv@b
  6183     09E7  120A  118A  202D  120A  158A  	fcall	___fldiv
  6184     09EC  1283               	bcf	3,5	;RP0=0, select bank0
  6185     09ED  1303               	bcf	3,6	;RP1=0, select bank0
  6186     09EE  082B               	movf	?___fldiv+3,w
  6187     09EF  00E8               	movwf	HIH5030_readData@x+3
  6188     09F0  082A               	movf	?___fldiv+2,w
  6189     09F1  00E7               	movwf	HIH5030_readData@x+2
  6190     09F2  0829               	movf	?___fldiv+1,w
  6191     09F3  00E6               	movwf	HIH5030_readData@x+1
  6192     09F4  0828               	movf	?___fldiv,w
  6193     09F5  00E5               	movwf	HIH5030_readData@x
  6194     09F6                     l3444:
  6195                           
  6196                           ;sensors.c: 85:    float RH = (x - 0.95) / (4.939 - 0.95) * 100;
  6197     09F6  3042               	movlw	66
  6198     09F7  00C5               	movwf	___flmul@b+3
  6199     09F8  30C8               	movlw	200
  6200     09F9  00C4               	movwf	___flmul@b+2
  6201     09FA  3000               	movlw	0
  6202     09FB  00C3               	movwf	___flmul@b+1
  6203     09FC  3000               	movlw	0
  6204     09FD  00C2               	movwf	___flmul@b
  6205     09FE  3040               	movlw	64
  6206     09FF  00AB               	movwf	___fldiv@a+3
  6207     0A00  307F               	movlw	127
  6208     0A01  00AA               	movwf	___fldiv@a+2
  6209     0A02  304B               	movlw	75
  6210     0A03  00A9               	movwf	___fldiv@a+1
  6211     0A04  30C7               	movlw	199
  6212     0A05  00A8               	movwf	___fldiv@a
  6213     0A06  30BF               	movlw	191
  6214     0A07  00F3               	movwf	___fladd@b+3
  6215     0A08  3073               	movlw	115
  6216     0A09  00F2               	movwf	___fladd@b+2
  6217     0A0A  3033               	movlw	51
  6218     0A0B  00F1               	movwf	___fladd@b+1
  6219     0A0C  3033               	movlw	51
  6220     0A0D  00F0               	movwf	___fladd@b
  6221     0A0E  0868               	movf	HIH5030_readData@x+3,w
  6222     0A0F  00F7               	movwf	___fladd@a+3
  6223     0A10  0867               	movf	HIH5030_readData@x+2,w
  6224     0A11  00F6               	movwf	___fladd@a+2
  6225     0A12  0866               	movf	HIH5030_readData@x+1,w
  6226     0A13  00F5               	movwf	___fladd@a+1
  6227     0A14  0865               	movf	HIH5030_readData@x,w
  6228     0A15  00F4               	movwf	___fladd@a
  6229     0A16  120A  158A  2257  120A  158A  	fcall	___fladd
  6230     0A1B  0873               	movf	?___fladd+3,w
  6231     0A1C  1283               	bcf	3,5	;RP0=0, select bank0
  6232     0A1D  1303               	bcf	3,6	;RP1=0, select bank0
  6233     0A1E  00AF               	movwf	___fldiv@b+3
  6234     0A1F  0872               	movf	?___fladd+2,w
  6235     0A20  00AE               	movwf	___fldiv@b+2
  6236     0A21  0871               	movf	?___fladd+1,w
  6237     0A22  00AD               	movwf	___fldiv@b+1
  6238     0A23  0870               	movf	?___fladd,w
  6239     0A24  00AC               	movwf	___fldiv@b
  6240     0A25  120A  118A  202D  120A  158A  	fcall	___fldiv
  6241     0A2A  1283               	bcf	3,5	;RP0=0, select bank0
  6242     0A2B  1303               	bcf	3,6	;RP1=0, select bank0
  6243     0A2C  082B               	movf	?___fldiv+3,w
  6244     0A2D  00C9               	movwf	___flmul@a+3
  6245     0A2E  082A               	movf	?___fldiv+2,w
  6246     0A2F  00C8               	movwf	___flmul@a+2
  6247     0A30  0829               	movf	?___fldiv+1,w
  6248     0A31  00C7               	movwf	___flmul@a+1
  6249     0A32  0828               	movf	?___fldiv,w
  6250     0A33  00C6               	movwf	___flmul@a
  6251     0A34  120A  158A  24BB  120A  158A  	fcall	___flmul
  6252     0A39  1283               	bcf	3,5	;RP0=0, select bank0
  6253     0A3A  1303               	bcf	3,6	;RP1=0, select bank0
  6254     0A3B  0845               	movf	?___flmul+3,w
  6255     0A3C  00E4               	movwf	HIH5030_readData@RH+3
  6256     0A3D  0844               	movf	?___flmul+2,w
  6257     0A3E  00E3               	movwf	HIH5030_readData@RH+2
  6258     0A3F  0843               	movf	?___flmul+1,w
  6259     0A40  00E2               	movwf	HIH5030_readData@RH+1
  6260     0A41  0842               	movf	?___flmul,w
  6261     0A42  00E1               	movwf	HIH5030_readData@RH
  6262     0A43                     l3446:
  6263                           
  6264                           ;sensors.c: 87:    return roundFloat(RH);
  6265     0A43  0864               	movf	HIH5030_readData@RH+3,w
  6266     0A44  00B3               	movwf	roundFloat@num+3
  6267     0A45  0863               	movf	HIH5030_readData@RH+2,w
  6268     0A46  00B2               	movwf	roundFloat@num+2
  6269     0A47  0862               	movf	HIH5030_readData@RH+1,w
  6270     0A48  00B1               	movwf	roundFloat@num+1
  6271     0A49  0861               	movf	HIH5030_readData@RH,w
  6272     0A4A  00B0               	movwf	roundFloat@num
  6273     0A4B  160A  118A  26CD  120A  158A  	fcall	_roundFloat
  6274     0A50  1283               	bcf	3,5	;RP0=0, select bank0
  6275     0A51  1303               	bcf	3,6	;RP1=0, select bank0
  6276     0A52  0831               	movf	?_roundFloat+1,w
  6277     0A53  00DD               	movwf	?_HIH5030_readData+1
  6278     0A54  0830               	movf	?_roundFloat,w
  6279     0A55  00DC               	movwf	?_HIH5030_readData
  6280     0A56                     l397:
  6281     0A56  0008               	return
  6282     0A57                     __end_of_HIH5030_readData:
  6283                           
  6284                           	psect	text28
  6285     16CD                     __ptext28:	
  6286 ;; *************** function _roundFloat *****************
  6287 ;; Defined at:
  6288 ;;		line 90 in file "sensors.c"
  6289 ;; Parameters:    Size  Location     Type
  6290 ;;  num             4   16[BANK0 ] float 
  6291 ;; Auto vars:     Size  Location     Type
  6292 ;;  decimal         4   20[BANK0 ] float 
  6293 ;;  rounded         2   24[BANK0 ] int 
  6294 ;; Return value:  Size  Location     Type
  6295 ;;                  2   16[BANK0 ] int 
  6296 ;; Registers used:
  6297 ;;		wreg, status,2, status,0, btemp+1, pclath, cstack
  6298 ;; Tracked objects:
  6299 ;;		On entry : 0/0
  6300 ;;		On exit  : 0/0
  6301 ;;		Unchanged: 0/0
  6302 ;; Data sizes:     COMMON   BANK0   BANK1   BANK3   BANK2
  6303 ;;      Params:         0       4       0       0       0
  6304 ;;      Locals:         0       6       0       0       0
  6305 ;;      Temps:          0       0       0       0       0
  6306 ;;      Totals:         0      10       0       0       0
  6307 ;;Total ram usage:       10 bytes
  6308 ;; Hardware stack levels used: 1
  6309 ;; Hardware stack levels required when called: 2
  6310 ;; This function calls:
  6311 ;;		___flge
  6312 ;;		___flsub
  6313 ;;		___fltol
  6314 ;;		___xxtofl
  6315 ;; This function is called by:
  6316 ;;		_HIH5030_readData
  6317 ;; This function uses a non-reentrant model
  6318 ;;
  6319                           
  6320     16CD                     _roundFloat:	
  6321                           ;psect for function _roundFloat
  6322                           
  6323     16CD                     l2872:	
  6324                           ;incstack = 0
  6325                           ; Regs used in _roundFloat: [wreg+status,2+status,0+btemp+1+pclath+cstack]
  6326                           
  6327                           
  6328                           ;sensors.c: 91:     int rounded = (int)num;
  6329     16CD  1283               	bcf	3,5	;RP0=0, select bank0
  6330     16CE  1303               	bcf	3,6	;RP1=0, select bank0
  6331     16CF  0833               	movf	roundFloat@num+3,w
  6332     16D0  00F3               	movwf	___fltol@f1+3
  6333     16D1  0832               	movf	roundFloat@num+2,w
  6334     16D2  00F2               	movwf	___fltol@f1+2
  6335     16D3  0831               	movf	roundFloat@num+1,w
  6336     16D4  00F1               	movwf	___fltol@f1+1
  6337     16D5  0830               	movf	roundFloat@num,w
  6338     16D6  00F0               	movwf	___fltol@f1
  6339     16D7  160A  118A  24D6  160A  118A  	fcall	___fltol
  6340     16DC  0871               	movf	?___fltol+1,w
  6341     16DD  1283               	bcf	3,5	;RP0=0, select bank0
  6342     16DE  1303               	bcf	3,6	;RP1=0, select bank0
  6343     16DF  00B9               	movwf	roundFloat@rounded+1
  6344     16E0  0870               	movf	?___fltol,w
  6345     16E1  00B8               	movwf	roundFloat@rounded
  6346                           
  6347                           ;sensors.c: 92:     float decimal = num - rounded;
  6348     16E2  0838               	movf	roundFloat@rounded,w
  6349     16E3  00F6               	movwf	___xxtofl@val
  6350     16E4  0839               	movf	roundFloat@rounded+1,w
  6351     16E5  00F7               	movwf	___xxtofl@val+1
  6352     16E6  3000               	movlw	0
  6353     16E7  1BF7               	btfsc	___xxtofl@val+1,7
  6354     16E8  30FF               	movlw	255
  6355     16E9  00F8               	movwf	___xxtofl@val+2
  6356     16EA  00F9               	movwf	___xxtofl@val+3
  6357     16EB  3001               	movlw	1
  6358     16EC  120A  158A  20BE  160A  118A  	fcall	___xxtofl
  6359     16F1  0879               	movf	?___xxtofl+3,w
  6360     16F2  1283               	bcf	3,5	;RP0=0, select bank0
  6361     16F3  1303               	bcf	3,6	;RP1=0, select bank0
  6362     16F4  00AB               	movwf	___flsub@a+3
  6363     16F5  0878               	movf	?___xxtofl+2,w
  6364     16F6  00AA               	movwf	___flsub@a+2
  6365     16F7  0877               	movf	?___xxtofl+1,w
  6366     16F8  00A9               	movwf	___flsub@a+1
  6367     16F9  0876               	movf	?___xxtofl,w
  6368     16FA  00A8               	movwf	___flsub@a
  6369     16FB  0833               	movf	roundFloat@num+3,w
  6370     16FC  00AF               	movwf	___flsub@b+3
  6371     16FD  0832               	movf	roundFloat@num+2,w
  6372     16FE  00AE               	movwf	___flsub@b+2
  6373     16FF  0831               	movf	roundFloat@num+1,w
  6374     1700  00AD               	movwf	___flsub@b+1
  6375     1701  0830               	movf	roundFloat@num,w
  6376     1702  00AC               	movwf	___flsub@b
  6377     1703  160A  118A  22B8  160A  118A  	fcall	___flsub
  6378     1708  1283               	bcf	3,5	;RP0=0, select bank0
  6379     1709  1303               	bcf	3,6	;RP1=0, select bank0
  6380     170A  082B               	movf	?___flsub+3,w
  6381     170B  00B7               	movwf	roundFloat@decimal+3
  6382     170C  082A               	movf	?___flsub+2,w
  6383     170D  00B6               	movwf	roundFloat@decimal+2
  6384     170E  0829               	movf	?___flsub+1,w
  6385     170F  00B5               	movwf	roundFloat@decimal+1
  6386     1710  0828               	movf	?___flsub,w
  6387     1711  00B4               	movwf	roundFloat@decimal
  6388     1712                     l2874:
  6389                           
  6390                           ;sensors.c: 93:     if(decimal >= 0.0) rounded += (num > 0.0) ? 1 : -1;
  6391     1712  0837               	movf	roundFloat@decimal+3,w
  6392     1713  00F3               	movwf	___flge@ff1+3
  6393     1714  0836               	movf	roundFloat@decimal+2,w
  6394     1715  00F2               	movwf	___flge@ff1+2
  6395     1716  0835               	movf	roundFloat@decimal+1,w
  6396     1717  00F1               	movwf	___flge@ff1+1
  6397     1718  0834               	movf	roundFloat@decimal,w
  6398     1719  00F0               	movwf	___flge@ff1
  6399     171A  3000               	movlw	0
  6400     171B  00F7               	movwf	___flge@ff2+3
  6401     171C  3000               	movlw	0
  6402     171D  00F6               	movwf	___flge@ff2+2
  6403     171E  3000               	movlw	0
  6404     171F  00F5               	movwf	___flge@ff2+1
  6405     1720  3000               	movlw	0
  6406     1721  00F4               	movwf	___flge@ff2
  6407     1722  160A  118A  275E  160A  118A  	fcall	___flge
  6408     1727  1C03               	btfss	3,0
  6409     1728  2F2A               	goto	u3371
  6410     1729  2F2B               	goto	u3370
  6411     172A                     u3371:
  6412     172A  2F57               	goto	l400
  6413     172B                     u3370:
  6414     172B                     l2876:
  6415     172B  3000               	movlw	0
  6416     172C  00F3               	movwf	___flge@ff1+3
  6417     172D  3000               	movlw	0
  6418     172E  00F2               	movwf	___flge@ff1+2
  6419     172F  3000               	movlw	0
  6420     1730  00F1               	movwf	___flge@ff1+1
  6421     1731  3000               	movlw	0
  6422     1732  00F0               	movwf	___flge@ff1
  6423     1733  1283               	bcf	3,5	;RP0=0, select bank0
  6424     1734  1303               	bcf	3,6	;RP1=0, select bank0
  6425     1735  0833               	movf	roundFloat@num+3,w
  6426     1736  00F7               	movwf	___flge@ff2+3
  6427     1737  0832               	movf	roundFloat@num+2,w
  6428     1738  00F6               	movwf	___flge@ff2+2
  6429     1739  0831               	movf	roundFloat@num+1,w
  6430     173A  00F5               	movwf	___flge@ff2+1
  6431     173B  0830               	movf	roundFloat@num,w
  6432     173C  00F4               	movwf	___flge@ff2
  6433     173D  160A  118A  275E  160A  118A  	fcall	___flge
  6434     1742  1C03               	btfss	3,0
  6435     1743  2F45               	goto	u3381
  6436     1744  2F46               	goto	u3380
  6437     1745                     u3381:
  6438     1745  2F4F               	goto	l2880
  6439     1746                     u3380:
  6440     1746                     l2878:
  6441     1746  30FF               	movlw	255
  6442     1747  1283               	bcf	3,5	;RP0=0, select bank0
  6443     1748  1303               	bcf	3,6	;RP1=0, select bank0
  6444     1749  07B8               	addwf	roundFloat@rounded,f
  6445     174A  1803               	skipnc
  6446     174B  0AB9               	incf	roundFloat@rounded+1,f
  6447     174C  30FF               	movlw	255
  6448     174D  07B9               	addwf	roundFloat@rounded+1,f
  6449     174E  2F57               	goto	l400
  6450     174F                     l2880:
  6451     174F  3001               	movlw	1
  6452     1750  1283               	bcf	3,5	;RP0=0, select bank0
  6453     1751  1303               	bcf	3,6	;RP1=0, select bank0
  6454     1752  07B8               	addwf	roundFloat@rounded,f
  6455     1753  1803               	skipnc
  6456     1754  0AB9               	incf	roundFloat@rounded+1,f
  6457     1755  3000               	movlw	0
  6458     1756  07B9               	addwf	roundFloat@rounded+1,f
  6459     1757                     l400:
  6460                           
  6461                           ;sensors.c: 95:     return rounded;
  6462     1757  1283               	bcf	3,5	;RP0=0, select bank0
  6463     1758  1303               	bcf	3,6	;RP1=0, select bank0
  6464     1759  0839               	movf	roundFloat@rounded+1,w
  6465     175A  00B1               	movwf	?_roundFloat+1
  6466     175B  0838               	movf	roundFloat@rounded,w
  6467     175C  00B0               	movwf	?_roundFloat
  6468     175D                     l405:
  6469     175D  0008               	return
  6470     175E                     __end_of_roundFloat:
  6471                           
  6472                           	psect	text29
  6473     08BE                     __ptext29:	
  6474 ;; *************** function ___xxtofl *****************
  6475 ;; Defined at:
  6476 ;;		line 10 in file "E:\XC8 Compiler\pic\sources\c90\common\xxtofl.c"
  6477 ;; Parameters:    Size  Location     Type
  6478 ;;  sign            1    wreg     unsigned char 
  6479 ;;  val             4    6[COMMON] long 
  6480 ;; Auto vars:     Size  Location     Type
  6481 ;;  sign            1    0[BANK0 ] unsigned char 
  6482 ;;  arg             4    2[BANK0 ] unsigned long 
  6483 ;;  exp             1    1[BANK0 ] unsigned char 
  6484 ;; Return value:  Size  Location     Type
  6485 ;;                  4    6[COMMON] unsigned char 
  6486 ;; Registers used:
  6487 ;;		wreg, status,2, status,0, btemp+1
  6488 ;; Tracked objects:
  6489 ;;		On entry : 0/0
  6490 ;;		On exit  : 0/0
  6491 ;;		Unchanged: 0/0
  6492 ;; Data sizes:     COMMON   BANK0   BANK1   BANK3   BANK2
  6493 ;;      Params:         4       0       0       0       0
  6494 ;;      Locals:         0       6       0       0       0
  6495 ;;      Temps:          4       0       0       0       0
  6496 ;;      Totals:         8       6       0       0       0
  6497 ;;Total ram usage:       14 bytes
  6498 ;; Hardware stack levels used: 1
  6499 ;; This function calls:
  6500 ;;		Nothing
  6501 ;; This function is called by:
  6502 ;;		_LM35_readData
  6503 ;;		_HIH5030_readData
  6504 ;;		_roundFloat
  6505 ;; This function uses a non-reentrant model
  6506 ;;
  6507                           
  6508     08BE                     ___xxtofl:	
  6509                           ;psect for function ___xxtofl
  6510                           
  6511                           
  6512                           ;incstack = 0
  6513                           ; Regs used in ___xxtofl: [wreg+status,2+status,0+btemp+1]
  6514                           ;___xxtofl@sign stored from wreg
  6515     08BE  1283               	bcf	3,5	;RP0=0, select bank0
  6516     08BF  1303               	bcf	3,6	;RP1=0, select bank0
  6517     08C0  00A0               	movwf	___xxtofl@sign
  6518     08C1                     l2794:
  6519     08C1  0820               	movf	___xxtofl@sign,w
  6520     08C2  1903               	btfsc	3,2
  6521     08C3  28C5               	goto	u3201
  6522     08C4  28C6               	goto	u3200
  6523     08C5                     u3201:
  6524     08C5  28DA               	goto	l2800
  6525     08C6                     u3200:
  6526     08C6                     l2796:
  6527     08C6  1FF9               	btfss	___xxtofl@val+3,7
  6528     08C7  28C9               	goto	u3211
  6529     08C8  28CA               	goto	u3210
  6530     08C9                     u3211:
  6531     08C9  28DA               	goto	l2800
  6532     08CA                     u3210:
  6533     08CA                     l2798:
  6534     08CA  0976               	comf	___xxtofl@val,w
  6535     08CB  00A2               	movwf	___xxtofl@arg
  6536     08CC  0977               	comf	___xxtofl@val+1,w
  6537     08CD  00A3               	movwf	___xxtofl@arg+1
  6538     08CE  0978               	comf	___xxtofl@val+2,w
  6539     08CF  00A4               	movwf	___xxtofl@arg+2
  6540     08D0  0979               	comf	___xxtofl@val+3,w
  6541     08D1  00A5               	movwf	___xxtofl@arg+3
  6542     08D2  0AA2               	incf	___xxtofl@arg,f
  6543     08D3  1903               	skipnz
  6544     08D4  0AA3               	incf	___xxtofl@arg+1,f
  6545     08D5  1903               	skipnz
  6546     08D6  0AA4               	incf	___xxtofl@arg+2,f
  6547     08D7  1903               	skipnz
  6548     08D8  0AA5               	incf	___xxtofl@arg+3,f
  6549     08D9  28E2               	goto	l933
  6550     08DA                     l2800:
  6551     08DA  0879               	movf	___xxtofl@val+3,w
  6552     08DB  00A5               	movwf	___xxtofl@arg+3
  6553     08DC  0878               	movf	___xxtofl@val+2,w
  6554     08DD  00A4               	movwf	___xxtofl@arg+2
  6555     08DE  0877               	movf	___xxtofl@val+1,w
  6556     08DF  00A3               	movwf	___xxtofl@arg+1
  6557     08E0  0876               	movf	___xxtofl@val,w
  6558     08E1  00A2               	movwf	___xxtofl@arg
  6559     08E2                     l933:
  6560     08E2  0879               	movf	___xxtofl@val+3,w
  6561     08E3  0478               	iorwf	___xxtofl@val+2,w
  6562     08E4  0477               	iorwf	___xxtofl@val+1,w
  6563     08E5  0476               	iorwf	___xxtofl@val,w
  6564     08E6  1D03               	skipz
  6565     08E7  28E9               	goto	u3221
  6566     08E8  28EA               	goto	u3220
  6567     08E9                     u3221:
  6568     08E9  28F3               	goto	l2806
  6569     08EA                     u3220:
  6570     08EA                     l2802:
  6571     08EA  3000               	movlw	0
  6572     08EB  00F9               	movwf	?___xxtofl+3
  6573     08EC  3000               	movlw	0
  6574     08ED  00F8               	movwf	?___xxtofl+2
  6575     08EE  3000               	movlw	0
  6576     08EF  00F7               	movwf	?___xxtofl+1
  6577     08F0  3000               	movlw	0
  6578     08F1  00F6               	movwf	?___xxtofl
  6579     08F2  2977               	goto	l935
  6580     08F3                     l2806:
  6581     08F3  3096               	movlw	150
  6582     08F4  00A1               	movwf	___xxtofl@exp
  6583     08F5  2903               	goto	l2812
  6584     08F6                     l2808:
  6585     08F6  3001               	movlw	1
  6586     08F7  00FF               	movwf	btemp+1
  6587     08F8  087F               	movf	btemp+1,w
  6588     08F9  07A1               	addwf	___xxtofl@exp,f
  6589     08FA                     l2810:
  6590     08FA  3001               	movlw	1
  6591     08FB                     u3235:
  6592     08FB  1003               	clrc
  6593     08FC  0CA5               	rrf	___xxtofl@arg+3,f
  6594     08FD  0CA4               	rrf	___xxtofl@arg+2,f
  6595     08FE  0CA3               	rrf	___xxtofl@arg+1,f
  6596     08FF  0CA2               	rrf	___xxtofl@arg,f
  6597     0900  3EFF               	addlw	-1
  6598     0901  1D03               	skipz
  6599     0902  28FB               	goto	u3235
  6600     0903                     l2812:
  6601     0903  30FE               	movlw	254
  6602     0904  0525               	andwf	___xxtofl@arg+3,w
  6603     0905  1D03               	btfss	3,2
  6604     0906  2908               	goto	u3241
  6605     0907  2909               	goto	u3240
  6606     0908                     u3241:
  6607     0908  28F6               	goto	l2808
  6608     0909                     u3240:
  6609     0909  2925               	goto	l2820
  6610     090A                     l2814:
  6611     090A  3001               	movlw	1
  6612     090B  00FF               	movwf	btemp+1
  6613     090C  087F               	movf	btemp+1,w
  6614     090D  07A1               	addwf	___xxtofl@exp,f
  6615     090E                     l2816:
  6616     090E  3001               	movlw	1
  6617     090F  07A2               	addwf	___xxtofl@arg,f
  6618     0910  3000               	movlw	0
  6619     0911  1803               	skipnc
  6620     0912  3001               	movlw	1
  6621     0913  07A3               	addwf	___xxtofl@arg+1,f
  6622     0914  3000               	movlw	0
  6623     0915  1803               	skipnc
  6624     0916  3001               	movlw	1
  6625     0917  07A4               	addwf	___xxtofl@arg+2,f
  6626     0918  3000               	movlw	0
  6627     0919  1803               	skipnc
  6628     091A  3001               	movlw	1
  6629     091B  07A5               	addwf	___xxtofl@arg+3,f
  6630     091C                     l2818:
  6631     091C  3001               	movlw	1
  6632     091D                     u3255:
  6633     091D  1003               	clrc
  6634     091E  0CA5               	rrf	___xxtofl@arg+3,f
  6635     091F  0CA4               	rrf	___xxtofl@arg+2,f
  6636     0920  0CA3               	rrf	___xxtofl@arg+1,f
  6637     0921  0CA2               	rrf	___xxtofl@arg,f
  6638     0922  3EFF               	addlw	-1
  6639     0923  1D03               	skipz
  6640     0924  291D               	goto	u3255
  6641     0925                     l2820:
  6642     0925  30FF               	movlw	255
  6643     0926  0525               	andwf	___xxtofl@arg+3,w
  6644     0927  1D03               	btfss	3,2
  6645     0928  292A               	goto	u3261
  6646     0929  292B               	goto	u3260
  6647     092A                     u3261:
  6648     092A  290A               	goto	l2814
  6649     092B                     u3260:
  6650     092B  2937               	goto	l2824
  6651     092C                     l2822:
  6652     092C  3001               	movlw	1
  6653     092D  02A1               	subwf	___xxtofl@exp,f
  6654     092E  3001               	movlw	1
  6655     092F  00FA               	movwf	??___xxtofl
  6656     0930                     u3275:
  6657     0930  1003               	clrc
  6658     0931  0DA2               	rlf	___xxtofl@arg,f
  6659     0932  0DA3               	rlf	___xxtofl@arg+1,f
  6660     0933  0DA4               	rlf	___xxtofl@arg+2,f
  6661     0934  0DA5               	rlf	___xxtofl@arg+3,f
  6662     0935  0BFA               	decfsz	??___xxtofl,f
  6663     0936  2930               	goto	u3275
  6664     0937                     l2824:
  6665     0937  1BA4               	btfsc	___xxtofl@arg+2,7
  6666     0938  293A               	goto	u3281
  6667     0939  293B               	goto	u3280
  6668     093A                     u3281:
  6669     093A  2941               	goto	l946
  6670     093B                     u3280:
  6671     093B                     l2826:
  6672     093B  3002               	movlw	2
  6673     093C  0221               	subwf	___xxtofl@exp,w
  6674     093D  1803               	skipnc
  6675     093E  2940               	goto	u3291
  6676     093F  2941               	goto	u3290
  6677     0940                     u3291:
  6678     0940  292C               	goto	l2822
  6679     0941                     u3290:
  6680     0941                     l946:
  6681     0941  1821               	btfsc	___xxtofl@exp,0
  6682     0942  2944               	goto	u3301
  6683     0943  2945               	goto	u3300
  6684     0944                     u3301:
  6685     0944  294D               	goto	l947
  6686     0945                     u3300:
  6687     0945                     l2828:
  6688     0945  30FF               	movlw	255
  6689     0946  05A2               	andwf	___xxtofl@arg,f
  6690     0947  30FF               	movlw	255
  6691     0948  05A3               	andwf	___xxtofl@arg+1,f
  6692     0949  307F               	movlw	127
  6693     094A  05A4               	andwf	___xxtofl@arg+2,f
  6694     094B  30FF               	movlw	255
  6695     094C  05A5               	andwf	___xxtofl@arg+3,f
  6696     094D                     l947:
  6697     094D  1003               	clrc
  6698     094E  0CA1               	rrf	___xxtofl@exp,f
  6699     094F                     l2830:
  6700     094F  0821               	movf	___xxtofl@exp,w
  6701     0950  00FA               	movwf	??___xxtofl
  6702     0951  01FB               	clrf	??___xxtofl+1
  6703     0952  01FC               	clrf	??___xxtofl+2
  6704     0953  01FD               	clrf	??___xxtofl+3
  6705     0954  3018               	movlw	24
  6706     0955                     u3315:
  6707     0955  1003               	clrc
  6708     0956  0DFA               	rlf	??___xxtofl,f
  6709     0957  0DFB               	rlf	??___xxtofl+1,f
  6710     0958  0DFC               	rlf	??___xxtofl+2,f
  6711     0959  0DFD               	rlf	??___xxtofl+3,f
  6712     095A                     u3310:
  6713     095A  3EFF               	addlw	-1
  6714     095B  1D03               	skipz
  6715     095C  2955               	goto	u3315
  6716     095D  087A               	movf	??___xxtofl,w
  6717     095E  04A2               	iorwf	___xxtofl@arg,f
  6718     095F  087B               	movf	??___xxtofl+1,w
  6719     0960  04A3               	iorwf	___xxtofl@arg+1,f
  6720     0961  087C               	movf	??___xxtofl+2,w
  6721     0962  04A4               	iorwf	___xxtofl@arg+2,f
  6722     0963  087D               	movf	??___xxtofl+3,w
  6723     0964  04A5               	iorwf	___xxtofl@arg+3,f
  6724     0965                     l2832:
  6725     0965  0820               	movf	___xxtofl@sign,w
  6726     0966  1903               	btfsc	3,2
  6727     0967  2969               	goto	u3321
  6728     0968  296A               	goto	u3320
  6729     0969                     u3321:
  6730     0969  296F               	goto	l2838
  6731     096A                     u3320:
  6732     096A                     l2834:
  6733     096A  1FF9               	btfss	___xxtofl@val+3,7
  6734     096B  296D               	goto	u3331
  6735     096C  296E               	goto	u3330
  6736     096D                     u3331:
  6737     096D  296F               	goto	l2838
  6738     096E                     u3330:
  6739     096E                     l2836:
  6740     096E  17A5               	bsf	___xxtofl@arg+3,7
  6741     096F                     l2838:
  6742     096F  0825               	movf	___xxtofl@arg+3,w
  6743     0970  00F9               	movwf	?___xxtofl+3
  6744     0971  0824               	movf	___xxtofl@arg+2,w
  6745     0972  00F8               	movwf	?___xxtofl+2
  6746     0973  0823               	movf	___xxtofl@arg+1,w
  6747     0974  00F7               	movwf	?___xxtofl+1
  6748     0975  0822               	movf	___xxtofl@arg,w
  6749     0976  00F6               	movwf	?___xxtofl
  6750     0977                     l935:
  6751     0977  0008               	return
  6752     0978                     __end_of___xxtofl:
  6753                           
  6754                           	psect	text30
  6755     14D6                     __ptext30:	
  6756 ;; *************** function ___fltol *****************
  6757 ;; Defined at:
  6758 ;;		line 43 in file "E:\XC8 Compiler\pic\sources\c90\common\fltol.c"
  6759 ;; Parameters:    Size  Location     Type
  6760 ;;  f1              4    0[COMMON] unsigned char 
  6761 ;; Auto vars:     Size  Location     Type
  6762 ;;  exp1            1    9[COMMON] unsigned char 
  6763 ;;  sign1           1    8[COMMON] unsigned char 
  6764 ;; Return value:  Size  Location     Type
  6765 ;;                  4    0[COMMON] long 
  6766 ;; Registers used:
  6767 ;;		wreg, status,2, status,0, btemp+1
  6768 ;; Tracked objects:
  6769 ;;		On entry : 0/0
  6770 ;;		On exit  : 0/0
  6771 ;;		Unchanged: 0/0
  6772 ;; Data sizes:     COMMON   BANK0   BANK1   BANK3   BANK2
  6773 ;;      Params:         4       0       0       0       0
  6774 ;;      Locals:         2       0       0       0       0
  6775 ;;      Temps:          4       0       0       0       0
  6776 ;;      Totals:        10       0       0       0       0
  6777 ;;Total ram usage:       10 bytes
  6778 ;; Hardware stack levels used: 1
  6779 ;; This function calls:
  6780 ;;		Nothing
  6781 ;; This function is called by:
  6782 ;;		_LM35_readData
  6783 ;;		_roundFloat
  6784 ;; This function uses a non-reentrant model
  6785 ;;
  6786                           
  6787     14D6                     ___fltol:	
  6788                           ;psect for function ___fltol
  6789                           
  6790     14D6                     l2736:	
  6791                           ;incstack = 0
  6792                           ; Regs used in ___fltol: [wreg+status,2+status,0+btemp+1]
  6793                           
  6794     14D6  1003               	clrc
  6795     14D7  0D72               	rlf	___fltol@f1+2,w
  6796     14D8  0D73               	rlf	___fltol@f1+3,w
  6797     14D9  00F9               	movwf	___fltol@exp1
  6798     14DA  0879               	movf	___fltol@exp1,w
  6799     14DB  1D03               	btfss	3,2
  6800     14DC  2CDE               	goto	u3071
  6801     14DD  2CDF               	goto	u3070
  6802     14DE                     u3071:
  6803     14DE  2CE8               	goto	l2742
  6804     14DF                     u3070:
  6805     14DF                     l2738:
  6806     14DF  3000               	movlw	0
  6807     14E0  00F3               	movwf	?___fltol+3
  6808     14E1  3000               	movlw	0
  6809     14E2  00F2               	movwf	?___fltol+2
  6810     14E3  3000               	movlw	0
  6811     14E4  00F1               	movwf	?___fltol+1
  6812     14E5  3000               	movlw	0
  6813     14E6  00F0               	movwf	?___fltol
  6814     14E7  2D4B               	goto	l686
  6815     14E8                     l2742:
  6816     14E8  0870               	movf	___fltol@f1,w
  6817     14E9  00F4               	movwf	??___fltol
  6818     14EA  0871               	movf	___fltol@f1+1,w
  6819     14EB  00F5               	movwf	??___fltol+1
  6820     14EC  0872               	movf	___fltol@f1+2,w
  6821     14ED  00F6               	movwf	??___fltol+2
  6822     14EE  0873               	movf	___fltol@f1+3,w
  6823     14EF  00F7               	movwf	??___fltol+3
  6824     14F0  301F               	movlw	31
  6825     14F1                     u3085:
  6826     14F1  1003               	clrc
  6827     14F2  0CF7               	rrf	??___fltol+3,f
  6828     14F3  0CF6               	rrf	??___fltol+2,f
  6829     14F4  0CF5               	rrf	??___fltol+1,f
  6830     14F5  0CF4               	rrf	??___fltol,f
  6831     14F6                     u3080:
  6832     14F6  3EFF               	addlw	-1
  6833     14F7  1D03               	skipz
  6834     14F8  2CF1               	goto	u3085
  6835     14F9  0874               	movf	??___fltol,w
  6836     14FA  00F8               	movwf	___fltol@sign1
  6837     14FB                     l2744:
  6838     14FB  17F2               	bsf	___fltol@f1+2,7
  6839     14FC                     l2746:
  6840     14FC  30FF               	movlw	255
  6841     14FD  05F0               	andwf	___fltol@f1,f
  6842     14FE  30FF               	movlw	255
  6843     14FF  05F1               	andwf	___fltol@f1+1,f
  6844     1500  30FF               	movlw	255
  6845     1501  05F2               	andwf	___fltol@f1+2,f
  6846     1502  3000               	movlw	0
  6847     1503  05F3               	andwf	___fltol@f1+3,f
  6848     1504                     l2748:
  6849     1504  3096               	movlw	150
  6850     1505  02F9               	subwf	___fltol@exp1,f
  6851     1506                     l2750:
  6852     1506  1FF9               	btfss	___fltol@exp1,7
  6853     1507  2D09               	goto	u3091
  6854     1508  2D0A               	goto	u3090
  6855     1509                     u3091:
  6856     1509  2D24               	goto	l2762
  6857     150A                     u3090:
  6858     150A                     l2752:
  6859     150A  0879               	movf	___fltol@exp1,w
  6860     150B  3A80               	xorlw	128
  6861     150C  3E97               	addlw	151
  6862     150D  1803               	skipnc
  6863     150E  2D10               	goto	u3101
  6864     150F  2D11               	goto	u3100
  6865     1510                     u3101:
  6866     1510  2D12               	goto	l2758
  6867     1511                     u3100:
  6868     1511  2CDF               	goto	l2738
  6869     1512                     l2758:
  6870     1512  3001               	movlw	1
  6871     1513                     u3115:
  6872     1513  1003               	clrc
  6873     1514  0CF3               	rrf	___fltol@f1+3,f
  6874     1515  0CF2               	rrf	___fltol@f1+2,f
  6875     1516  0CF1               	rrf	___fltol@f1+1,f
  6876     1517  0CF0               	rrf	___fltol@f1,f
  6877     1518  3EFF               	addlw	-1
  6878     1519  1D03               	skipz
  6879     151A  2D13               	goto	u3115
  6880     151B                     l2760:
  6881     151B  3001               	movlw	1
  6882     151C  00FF               	movwf	btemp+1
  6883     151D  087F               	movf	btemp+1,w
  6884     151E  07F9               	addwf	___fltol@exp1,f
  6885     151F  1D03               	btfss	3,2
  6886     1520  2D22               	goto	u3121
  6887     1521  2D23               	goto	u3120
  6888     1522                     u3121:
  6889     1522  2D12               	goto	l2758
  6890     1523                     u3120:
  6891     1523  2D3B               	goto	l2770
  6892     1524                     l2762:
  6893     1524  3020               	movlw	32
  6894     1525  0279               	subwf	___fltol@exp1,w
  6895     1526  1C03               	skipc
  6896     1527  2D29               	goto	u3131
  6897     1528  2D2A               	goto	u3130
  6898     1529                     u3131:
  6899     1529  2D36               	goto	l693
  6900     152A                     u3130:
  6901     152A  2CDF               	goto	l2738
  6902     152B                     l2768:
  6903     152B  3001               	movlw	1
  6904     152C  00F4               	movwf	??___fltol
  6905     152D                     u3145:
  6906     152D  1003               	clrc
  6907     152E  0DF0               	rlf	___fltol@f1,f
  6908     152F  0DF1               	rlf	___fltol@f1+1,f
  6909     1530  0DF2               	rlf	___fltol@f1+2,f
  6910     1531  0DF3               	rlf	___fltol@f1+3,f
  6911     1532  0BF4               	decfsz	??___fltol,f
  6912     1533  2D2D               	goto	u3145
  6913     1534  3001               	movlw	1
  6914     1535  02F9               	subwf	___fltol@exp1,f
  6915     1536                     l693:
  6916     1536  0879               	movf	___fltol@exp1,w
  6917     1537  1D03               	btfss	3,2
  6918     1538  2D3A               	goto	u3151
  6919     1539  2D3B               	goto	u3150
  6920     153A                     u3151:
  6921     153A  2D2B               	goto	l2768
  6922     153B                     u3150:
  6923     153B                     l2770:
  6924     153B  0878               	movf	___fltol@sign1,w
  6925     153C  1903               	btfsc	3,2
  6926     153D  2D3F               	goto	u3161
  6927     153E  2D40               	goto	u3160
  6928     153F                     u3161:
  6929     153F  2D4B               	goto	l696
  6930     1540                     u3160:
  6931     1540                     l2772:
  6932     1540  09F0               	comf	___fltol@f1,f
  6933     1541  09F1               	comf	___fltol@f1+1,f
  6934     1542  09F2               	comf	___fltol@f1+2,f
  6935     1543  09F3               	comf	___fltol@f1+3,f
  6936     1544  0AF0               	incf	___fltol@f1,f
  6937     1545  1903               	skipnz
  6938     1546  0AF1               	incf	___fltol@f1+1,f
  6939     1547  1903               	skipnz
  6940     1548  0AF2               	incf	___fltol@f1+2,f
  6941     1549  1903               	skipnz
  6942     154A  0AF3               	incf	___fltol@f1+3,f
  6943     154B                     l696:
  6944     154B                     l686:
  6945     154B  0008               	return
  6946     154C                     __end_of___fltol:
  6947                           
  6948                           	psect	text31
  6949     12B8                     __ptext31:	
  6950 ;; *************** function ___flsub *****************
  6951 ;; Defined at:
  6952 ;;		line 242 in file "E:\XC8 Compiler\pic\sources\c90\common\sprcadd.c"
  6953 ;; Parameters:    Size  Location     Type
  6954 ;;  a               4    8[BANK0 ] long 
  6955 ;;  b               4   12[BANK0 ] long 
  6956 ;; Auto vars:     Size  Location     Type
  6957 ;;		None
  6958 ;; Return value:  Size  Location     Type
  6959 ;;                  4    8[BANK0 ] long 
  6960 ;; Registers used:
  6961 ;;		wreg, status,2, status,0, btemp+1, pclath, cstack
  6962 ;; Tracked objects:
  6963 ;;		On entry : 0/0
  6964 ;;		On exit  : 0/0
  6965 ;;		Unchanged: 0/0
  6966 ;; Data sizes:     COMMON   BANK0   BANK1   BANK3   BANK2
  6967 ;;      Params:         0       8       0       0       0
  6968 ;;      Locals:         0       0       0       0       0
  6969 ;;      Temps:          0       0       0       0       0
  6970 ;;      Totals:         0       8       0       0       0
  6971 ;;Total ram usage:        8 bytes
  6972 ;; Hardware stack levels used: 1
  6973 ;; Hardware stack levels required when called: 1
  6974 ;; This function calls:
  6975 ;;		___fladd
  6976 ;; This function is called by:
  6977 ;;		_roundFloat
  6978 ;; This function uses a non-reentrant model
  6979 ;;
  6980                           
  6981     12B8                     ___flsub:	
  6982                           ;psect for function ___flsub
  6983                           
  6984     12B8                     l2774:	
  6985                           ;incstack = 0
  6986                           ; Regs used in ___flsub: [wreg+status,2+status,0+btemp+1+pclath+cstack]
  6987                           
  6988     12B8  3080               	movlw	128
  6989     12B9  1283               	bcf	3,5	;RP0=0, select bank0
  6990     12BA  1303               	bcf	3,6	;RP1=0, select bank0
  6991     12BB  06AB               	xorwf	___flsub@a+3,f
  6992     12BC                     l2776:
  6993     12BC  082F               	movf	___flsub@b+3,w
  6994     12BD  00F3               	movwf	___fladd@b+3
  6995     12BE  082E               	movf	___flsub@b+2,w
  6996     12BF  00F2               	movwf	___fladd@b+2
  6997     12C0  082D               	movf	___flsub@b+1,w
  6998     12C1  00F1               	movwf	___fladd@b+1
  6999     12C2  082C               	movf	___flsub@b,w
  7000     12C3  00F0               	movwf	___fladd@b
  7001     12C4  082B               	movf	___flsub@a+3,w
  7002     12C5  00F7               	movwf	___fladd@a+3
  7003     12C6  082A               	movf	___flsub@a+2,w
  7004     12C7  00F6               	movwf	___fladd@a+2
  7005     12C8  0829               	movf	___flsub@a+1,w
  7006     12C9  00F5               	movwf	___fladd@a+1
  7007     12CA  0828               	movf	___flsub@a,w
  7008     12CB  00F4               	movwf	___fladd@a
  7009     12CC  120A  158A  2257  160A  118A  	fcall	___fladd
  7010     12D1  0873               	movf	?___fladd+3,w
  7011     12D2  1283               	bcf	3,5	;RP0=0, select bank0
  7012     12D3  1303               	bcf	3,6	;RP1=0, select bank0
  7013     12D4  00AB               	movwf	?___flsub+3
  7014     12D5  0872               	movf	?___fladd+2,w
  7015     12D6  00AA               	movwf	?___flsub+2
  7016     12D7  0871               	movf	?___fladd+1,w
  7017     12D8  00A9               	movwf	?___flsub+1
  7018     12D9  0870               	movf	?___fladd,w
  7019     12DA  00A8               	movwf	?___flsub
  7020     12DB                     l839:
  7021     12DB  0008               	return
  7022     12DC                     __end_of___flsub:
  7023                           
  7024                           	psect	text32
  7025     0A57                     __ptext32:	
  7026 ;; *************** function ___fladd *****************
  7027 ;; Defined at:
  7028 ;;		line 10 in file "E:\XC8 Compiler\pic\sources\c90\common\sprcadd.c"
  7029 ;; Parameters:    Size  Location     Type
  7030 ;;  b               4    0[COMMON] long 
  7031 ;;  a               4    4[COMMON] long 
  7032 ;; Auto vars:     Size  Location     Type
  7033 ;;  grs             1   11[COMMON] unsigned char 
  7034 ;;  bexp            1   10[COMMON] unsigned char 
  7035 ;;  aexp            1    9[COMMON] unsigned char 
  7036 ;;  signs           1    8[COMMON] unsigned char 
  7037 ;; Return value:  Size  Location     Type
  7038 ;;                  4    0[COMMON] unsigned char 
  7039 ;; Registers used:
  7040 ;;		wreg, status,2, status,0, btemp+1
  7041 ;; Tracked objects:
  7042 ;;		On entry : 0/0
  7043 ;;		On exit  : 0/0
  7044 ;;		Unchanged: 0/0
  7045 ;; Data sizes:     COMMON   BANK0   BANK1   BANK3   BANK2
  7046 ;;      Params:         8       0       0       0       0
  7047 ;;      Locals:         4       0       0       0       0
  7048 ;;      Temps:          0       8       0       0       0
  7049 ;;      Totals:        12       8       0       0       0
  7050 ;;Total ram usage:       20 bytes
  7051 ;; Hardware stack levels used: 1
  7052 ;; This function calls:
  7053 ;;		Nothing
  7054 ;; This function is called by:
  7055 ;;		_HIH5030_readData
  7056 ;;		___flsub
  7057 ;; This function uses a non-reentrant model
  7058 ;;
  7059                           
  7060     0A57                     ___fladd:	
  7061                           ;psect for function ___fladd
  7062                           
  7063     0A57                     l2510:	
  7064                           ;incstack = 0
  7065                           ; Regs used in ___fladd: [wreg+status,2+status,0+btemp+1]
  7066                           
  7067     0A57  0873               	movf	___fladd@b+3,w
  7068     0A58  3980               	andlw	128
  7069     0A59  00F8               	movwf	___fladd@signs
  7070     0A5A                     l2512:
  7071     0A5A  0873               	movf	___fladd@b+3,w
  7072     0A5B  1283               	bcf	3,5	;RP0=0, select bank0
  7073     0A5C  1303               	bcf	3,6	;RP1=0, select bank0
  7074     0A5D  00A0               	movwf	??___fladd
  7075     0A5E  0720               	addwf	??___fladd,w
  7076     0A5F  00FA               	movwf	___fladd@bexp
  7077     0A60                     l2514:
  7078     0A60  1FF2               	btfss	___fladd@b+2,7
  7079     0A61  2A63               	goto	u2541
  7080     0A62  2A64               	goto	u2540
  7081     0A63                     u2541:
  7082     0A63  2A65               	goto	l2518
  7083     0A64                     u2540:
  7084     0A64                     l2516:
  7085     0A64  147A               	bsf	___fladd@bexp,0
  7086     0A65                     l2518:
  7087     0A65  087A               	movf	___fladd@bexp,w
  7088     0A66  1903               	btfsc	3,2
  7089     0A67  2A69               	goto	u2551
  7090     0A68  2A6A               	goto	u2550
  7091     0A69                     u2551:
  7092     0A69  2A7A               	goto	l2528
  7093     0A6A                     u2550:
  7094     0A6A                     l2520:
  7095     0A6A  0A7A               	incf	___fladd@bexp,w
  7096     0A6B  1D03               	btfss	3,2
  7097     0A6C  2A6E               	goto	u2561
  7098     0A6D  2A6F               	goto	u2560
  7099     0A6E                     u2561:
  7100     0A6E  2A77               	goto	l2524
  7101     0A6F                     u2560:
  7102     0A6F                     l2522:
  7103     0A6F  3000               	movlw	0
  7104     0A70  00F3               	movwf	___fladd@b+3
  7105     0A71  3000               	movlw	0
  7106     0A72  00F2               	movwf	___fladd@b+2
  7107     0A73  3000               	movlw	0
  7108     0A74  00F1               	movwf	___fladd@b+1
  7109     0A75  3000               	movlw	0
  7110     0A76  00F0               	movwf	___fladd@b
  7111     0A77                     l2524:
  7112     0A77  17F2               	bsf	___fladd@b+2,7
  7113     0A78                     l2526:
  7114     0A78  01F3               	clrf	___fladd@b+3
  7115     0A79  2A82               	goto	l2530
  7116     0A7A                     l2528:
  7117     0A7A  3000               	movlw	0
  7118     0A7B  00F3               	movwf	___fladd@b+3
  7119     0A7C  3000               	movlw	0
  7120     0A7D  00F2               	movwf	___fladd@b+2
  7121     0A7E  3000               	movlw	0
  7122     0A7F  00F1               	movwf	___fladd@b+1
  7123     0A80  3000               	movlw	0
  7124     0A81  00F0               	movwf	___fladd@b
  7125     0A82                     l2530:
  7126     0A82  0877               	movf	___fladd@a+3,w
  7127     0A83  3980               	andlw	128
  7128     0A84  00F9               	movwf	___fladd@aexp
  7129     0A85                     l2532:
  7130     0A85  0879               	movf	___fladd@aexp,w
  7131     0A86  0678               	xorwf	___fladd@signs,w
  7132     0A87  1903               	skipnz
  7133     0A88  2A8A               	goto	u2571
  7134     0A89  2A8B               	goto	u2570
  7135     0A8A                     u2571:
  7136     0A8A  2A8C               	goto	l2536
  7137     0A8B                     u2570:
  7138     0A8B                     l2534:
  7139     0A8B  1778               	bsf	___fladd@signs,6
  7140     0A8C                     l2536:
  7141     0A8C  0877               	movf	___fladd@a+3,w
  7142     0A8D  00A0               	movwf	??___fladd
  7143     0A8E  0720               	addwf	??___fladd,w
  7144     0A8F  00F9               	movwf	___fladd@aexp
  7145     0A90                     l2538:
  7146     0A90  1FF6               	btfss	___fladd@a+2,7
  7147     0A91  2A93               	goto	u2581
  7148     0A92  2A94               	goto	u2580
  7149     0A93                     u2581:
  7150     0A93  2A95               	goto	l2542
  7151     0A94                     u2580:
  7152     0A94                     l2540:
  7153     0A94  1479               	bsf	___fladd@aexp,0
  7154     0A95                     l2542:
  7155     0A95  0879               	movf	___fladd@aexp,w
  7156     0A96  1903               	btfsc	3,2
  7157     0A97  2A99               	goto	u2591
  7158     0A98  2A9A               	goto	u2590
  7159     0A99                     u2591:
  7160     0A99  2AAA               	goto	l2552
  7161     0A9A                     u2590:
  7162     0A9A                     l2544:
  7163     0A9A  0A79               	incf	___fladd@aexp,w
  7164     0A9B  1D03               	btfss	3,2
  7165     0A9C  2A9E               	goto	u2601
  7166     0A9D  2A9F               	goto	u2600
  7167     0A9E                     u2601:
  7168     0A9E  2AA7               	goto	l2548
  7169     0A9F                     u2600:
  7170     0A9F                     l2546:
  7171     0A9F  3000               	movlw	0
  7172     0AA0  00F7               	movwf	___fladd@a+3
  7173     0AA1  3000               	movlw	0
  7174     0AA2  00F6               	movwf	___fladd@a+2
  7175     0AA3  3000               	movlw	0
  7176     0AA4  00F5               	movwf	___fladd@a+1
  7177     0AA5  3000               	movlw	0
  7178     0AA6  00F4               	movwf	___fladd@a
  7179     0AA7                     l2548:
  7180     0AA7  17F6               	bsf	___fladd@a+2,7
  7181     0AA8                     l2550:
  7182     0AA8  01F7               	clrf	___fladd@a+3
  7183     0AA9  2AB2               	goto	l793
  7184     0AAA                     l2552:
  7185     0AAA  3000               	movlw	0
  7186     0AAB  00F7               	movwf	___fladd@a+3
  7187     0AAC  3000               	movlw	0
  7188     0AAD  00F6               	movwf	___fladd@a+2
  7189     0AAE  3000               	movlw	0
  7190     0AAF  00F5               	movwf	___fladd@a+1
  7191     0AB0  3000               	movlw	0
  7192     0AB1  00F4               	movwf	___fladd@a
  7193     0AB2                     l793:
  7194     0AB2  087A               	movf	___fladd@bexp,w
  7195     0AB3  0279               	subwf	___fladd@aexp,w
  7196     0AB4  1803               	skipnc
  7197     0AB5  2AB7               	goto	u2611
  7198     0AB6  2AB8               	goto	u2610
  7199     0AB7                     u2611:
  7200     0AB7  2ADE               	goto	l2588
  7201     0AB8                     u2610:
  7202     0AB8                     l2554:
  7203     0AB8  1F78               	btfss	___fladd@signs,6
  7204     0AB9  2ABB               	goto	u2621
  7205     0ABA  2ABC               	goto	u2620
  7206     0ABB                     u2621:
  7207     0ABB  2AC0               	goto	l2558
  7208     0ABC                     u2620:
  7209     0ABC                     l2556:
  7210     0ABC  3080               	movlw	128
  7211     0ABD  00FF               	movwf	btemp+1
  7212     0ABE  087F               	movf	btemp+1,w
  7213     0ABF  06F8               	xorwf	___fladd@signs,f
  7214     0AC0                     l2558:
  7215     0AC0  087A               	movf	___fladd@bexp,w
  7216     0AC1  00FB               	movwf	___fladd@grs
  7217     0AC2                     l2560:
  7218     0AC2  0879               	movf	___fladd@aexp,w
  7219     0AC3  00FA               	movwf	___fladd@bexp
  7220     0AC4                     l2562:
  7221     0AC4  087B               	movf	___fladd@grs,w
  7222     0AC5  00F9               	movwf	___fladd@aexp
  7223     0AC6                     l2564:
  7224     0AC6  0870               	movf	___fladd@b,w
  7225     0AC7  00FB               	movwf	___fladd@grs
  7226     0AC8                     l2566:
  7227     0AC8  0874               	movf	___fladd@a,w
  7228     0AC9  00F0               	movwf	___fladd@b
  7229     0ACA                     l2568:
  7230     0ACA  087B               	movf	___fladd@grs,w
  7231     0ACB  00F4               	movwf	___fladd@a
  7232     0ACC                     l2570:
  7233     0ACC  0871               	movf	___fladd@b+1,w
  7234     0ACD  00FB               	movwf	___fladd@grs
  7235     0ACE                     l2572:
  7236     0ACE  0875               	movf	___fladd@a+1,w
  7237     0ACF  00F1               	movwf	___fladd@b+1
  7238     0AD0                     l2574:
  7239     0AD0  087B               	movf	___fladd@grs,w
  7240     0AD1  00F5               	movwf	___fladd@a+1
  7241     0AD2                     l2576:
  7242     0AD2  0872               	movf	___fladd@b+2,w
  7243     0AD3  00FB               	movwf	___fladd@grs
  7244     0AD4                     l2578:
  7245     0AD4  0876               	movf	___fladd@a+2,w
  7246     0AD5  00F2               	movwf	___fladd@b+2
  7247     0AD6                     l2580:
  7248     0AD6  087B               	movf	___fladd@grs,w
  7249     0AD7  00F6               	movwf	___fladd@a+2
  7250     0AD8                     l2582:
  7251     0AD8  0873               	movf	___fladd@b+3,w
  7252     0AD9  00FB               	movwf	___fladd@grs
  7253     0ADA                     l2584:
  7254     0ADA  0877               	movf	___fladd@a+3,w
  7255     0ADB  00F3               	movwf	___fladd@b+3
  7256     0ADC                     l2586:
  7257     0ADC  087B               	movf	___fladd@grs,w
  7258     0ADD  00F7               	movwf	___fladd@a+3
  7259     0ADE                     l2588:
  7260     0ADE  01FB               	clrf	___fladd@grs
  7261     0ADF                     l2590:
  7262     0ADF  0879               	movf	___fladd@aexp,w
  7263     0AE0  00A0               	movwf	??___fladd
  7264     0AE1  01A1               	clrf	??___fladd+1
  7265     0AE2  0821               	movf	??___fladd+1,w
  7266     0AE3  00A3               	movwf	??___fladd+3
  7267     0AE4  087A               	movf	___fladd@bexp,w
  7268     0AE5  0220               	subwf	??___fladd,w
  7269     0AE6  00A2               	movwf	??___fladd+2
  7270     0AE7  1C03               	skipc
  7271     0AE8  03A3               	decf	??___fladd+3,f
  7272     0AE9  0823               	movf	??___fladd+3,w
  7273     0AEA  3A80               	xorlw	128
  7274     0AEB  00FF               	movwf	btemp+1
  7275     0AEC  3080               	movlw	128
  7276     0AED  027F               	subwf	btemp+1,w
  7277     0AEE  1D03               	skipz
  7278     0AEF  2AF2               	goto	u2635
  7279     0AF0  301A               	movlw	26
  7280     0AF1  0222               	subwf	??___fladd+2,w
  7281     0AF2                     u2635:
  7282     0AF2  1C03               	skipc
  7283     0AF3  2AF5               	goto	u2631
  7284     0AF4  2AF6               	goto	u2630
  7285     0AF5                     u2631:
  7286     0AF5  2B2F               	goto	l2606
  7287     0AF6                     u2630:
  7288     0AF6                     l2592:
  7289     0AF6  0873               	movf	___fladd@b+3,w
  7290     0AF7  0472               	iorwf	___fladd@b+2,w
  7291     0AF8  0471               	iorwf	___fladd@b+1,w
  7292     0AF9  0470               	iorwf	___fladd@b,w
  7293     0AFA  1D03               	skipz
  7294     0AFB  2AFD               	goto	u2641
  7295     0AFC  2AFF               	goto	u2640
  7296     0AFD                     u2641:
  7297     0AFD  3001               	movlw	1
  7298     0AFE  2B00               	goto	u2650
  7299     0AFF                     u2640:
  7300     0AFF  3000               	movlw	0
  7301     0B00                     u2650:
  7302     0B00  00FB               	movwf	___fladd@grs
  7303     0B01  3000               	movlw	0
  7304     0B02  00F3               	movwf	___fladd@b+3
  7305     0B03  3000               	movlw	0
  7306     0B04  00F2               	movwf	___fladd@b+2
  7307     0B05  3000               	movlw	0
  7308     0B06  00F1               	movwf	___fladd@b+1
  7309     0B07  3000               	movlw	0
  7310     0B08  00F0               	movwf	___fladd@b
  7311     0B09  0879               	movf	___fladd@aexp,w
  7312     0B0A  00FA               	movwf	___fladd@bexp
  7313     0B0B  2B35               	goto	l797
  7314     0B0C                     l799:
  7315     0B0C  1C7B               	btfss	___fladd@grs,0
  7316     0B0D  2B0F               	goto	u2661
  7317     0B0E  2B10               	goto	u2660
  7318     0B0F                     u2661:
  7319     0B0F  2B19               	goto	l2596
  7320     0B10                     u2660:
  7321     0B10                     l2594:
  7322     0B10  087B               	movf	___fladd@grs,w
  7323     0B11  1283               	bcf	3,5	;RP0=0, select bank0
  7324     0B12  1303               	bcf	3,6	;RP1=0, select bank0
  7325     0B13  00A0               	movwf	??___fladd
  7326     0B14  1003               	clrc
  7327     0B15  0C20               	rrf	??___fladd,w
  7328     0B16  3801               	iorlw	1
  7329     0B17  00FB               	movwf	___fladd@grs
  7330     0B18  2B1B               	goto	l2598
  7331     0B19                     l2596:
  7332     0B19  1003               	clrc
  7333     0B1A  0CFB               	rrf	___fladd@grs,f
  7334     0B1B                     l2598:
  7335     0B1B  1C70               	btfss	___fladd@b,0
  7336     0B1C  2B1E               	goto	u2671
  7337     0B1D  2B1F               	goto	u2670
  7338     0B1E                     u2671:
  7339     0B1E  2B20               	goto	l2602
  7340     0B1F                     u2670:
  7341     0B1F                     l2600:
  7342     0B1F  17FB               	bsf	___fladd@grs,7
  7343     0B20                     l2602:
  7344     0B20  3001               	movlw	1
  7345     0B21  1283               	bcf	3,5	;RP0=0, select bank0
  7346     0B22  1303               	bcf	3,6	;RP1=0, select bank0
  7347     0B23  00A0               	movwf	??___fladd
  7348     0B24                     u2685:
  7349     0B24  0D73               	rlf	___fladd@b+3,w
  7350     0B25  0CF3               	rrf	___fladd@b+3,f
  7351     0B26  0CF2               	rrf	___fladd@b+2,f
  7352     0B27  0CF1               	rrf	___fladd@b+1,f
  7353     0B28  0CF0               	rrf	___fladd@b,f
  7354     0B29  0BA0               	decfsz	??___fladd& (0+127),f
  7355     0B2A  2B24               	goto	u2685
  7356     0B2B                     l2604:
  7357     0B2B  3001               	movlw	1
  7358     0B2C  00FF               	movwf	btemp+1
  7359     0B2D  087F               	movf	btemp+1,w
  7360     0B2E  07FA               	addwf	___fladd@bexp,f
  7361     0B2F                     l2606:
  7362     0B2F  0879               	movf	___fladd@aexp,w
  7363     0B30  027A               	subwf	___fladd@bexp,w
  7364     0B31  1C03               	skipc
  7365     0B32  2B34               	goto	u2691
  7366     0B33  2B35               	goto	u2690
  7367     0B34                     u2691:
  7368     0B34  2B0C               	goto	l799
  7369     0B35                     u2690:
  7370     0B35                     l797:
  7371     0B35  1B78               	btfsc	___fladd@signs,6
  7372     0B36  2B38               	goto	u2701
  7373     0B37  2B39               	goto	u2700
  7374     0B38                     u2701:
  7375     0B38  2B86               	goto	l2632
  7376     0B39                     u2700:
  7377     0B39                     l2608:
  7378     0B39  087A               	movf	___fladd@bexp,w
  7379     0B3A  1D03               	btfss	3,2
  7380     0B3B  2B3D               	goto	u2711
  7381     0B3C  2B3E               	goto	u2710
  7382     0B3D                     u2711:
  7383     0B3D  2B47               	goto	l2614
  7384     0B3E                     u2710:
  7385     0B3E                     l2610:
  7386     0B3E  3000               	movlw	0
  7387     0B3F  00F3               	movwf	?___fladd+3
  7388     0B40  3000               	movlw	0
  7389     0B41  00F2               	movwf	?___fladd+2
  7390     0B42  3000               	movlw	0
  7391     0B43  00F1               	movwf	?___fladd+1
  7392     0B44  3000               	movlw	0
  7393     0B45  00F0               	movwf	?___fladd
  7394     0B46  2CBA               	goto	l806
  7395     0B47                     l2614:
  7396     0B47  0874               	movf	___fladd@a,w
  7397     0B48  07F0               	addwf	___fladd@b,f
  7398     0B49  0875               	movf	___fladd@a+1,w
  7399     0B4A  1103               	clrz
  7400     0B4B  1803               	skipnc
  7401     0B4C  3E01               	addlw	1
  7402     0B4D  1903               	skipnz
  7403     0B4E  2B50               	goto	u2721
  7404     0B4F  07F1               	addwf	___fladd@b+1,f
  7405     0B50                     u2721:
  7406     0B50  0876               	movf	___fladd@a+2,w
  7407     0B51  1103               	clrz
  7408     0B52  1803               	skipnc
  7409     0B53  3E01               	addlw	1
  7410     0B54  1903               	skipnz
  7411     0B55  2B57               	goto	u2722
  7412     0B56  07F2               	addwf	___fladd@b+2,f
  7413     0B57                     u2722:
  7414     0B57  0877               	movf	___fladd@a+3,w
  7415     0B58  1103               	clrz
  7416     0B59  1803               	skipnc
  7417     0B5A  3E01               	addlw	1
  7418     0B5B  1903               	skipnz
  7419     0B5C  2B5E               	goto	u2723
  7420     0B5D  07F3               	addwf	___fladd@b+3,f
  7421     0B5E                     u2723:
  7422     0B5E                     l2616:
  7423     0B5E  1C73               	btfss	___fladd@b+3,0
  7424     0B5F  2B61               	goto	u2731
  7425     0B60  2B62               	goto	u2730
  7426     0B61                     u2731:
  7427     0B61  2C3E               	goto	l2668
  7428     0B62                     u2730:
  7429     0B62                     l2618:
  7430     0B62  1C7B               	btfss	___fladd@grs,0
  7431     0B63  2B65               	goto	u2741
  7432     0B64  2B66               	goto	u2740
  7433     0B65                     u2741:
  7434     0B65  2B6F               	goto	l2622
  7435     0B66                     u2740:
  7436     0B66                     l2620:
  7437     0B66  087B               	movf	___fladd@grs,w
  7438     0B67  1283               	bcf	3,5	;RP0=0, select bank0
  7439     0B68  1303               	bcf	3,6	;RP1=0, select bank0
  7440     0B69  00A0               	movwf	??___fladd
  7441     0B6A  1003               	clrc
  7442     0B6B  0C20               	rrf	??___fladd,w
  7443     0B6C  3801               	iorlw	1
  7444     0B6D  00FB               	movwf	___fladd@grs
  7445     0B6E  2B71               	goto	l2624
  7446     0B6F                     l2622:
  7447     0B6F  1003               	clrc
  7448     0B70  0CFB               	rrf	___fladd@grs,f
  7449     0B71                     l2624:
  7450     0B71  1C70               	btfss	___fladd@b,0
  7451     0B72  2B74               	goto	u2751
  7452     0B73  2B75               	goto	u2750
  7453     0B74                     u2751:
  7454     0B74  2B76               	goto	l2628
  7455     0B75                     u2750:
  7456     0B75                     l2626:
  7457     0B75  17FB               	bsf	___fladd@grs,7
  7458     0B76                     l2628:
  7459     0B76  3001               	movlw	1
  7460     0B77  1283               	bcf	3,5	;RP0=0, select bank0
  7461     0B78  1303               	bcf	3,6	;RP1=0, select bank0
  7462     0B79  00A0               	movwf	??___fladd
  7463     0B7A                     u2765:
  7464     0B7A  0D73               	rlf	___fladd@b+3,w
  7465     0B7B  0CF3               	rrf	___fladd@b+3,f
  7466     0B7C  0CF2               	rrf	___fladd@b+2,f
  7467     0B7D  0CF1               	rrf	___fladd@b+1,f
  7468     0B7E  0CF0               	rrf	___fladd@b,f
  7469     0B7F  0BA0               	decfsz	??___fladd& (0+127),f
  7470     0B80  2B7A               	goto	u2765
  7471     0B81                     l2630:
  7472     0B81  3001               	movlw	1
  7473     0B82  00FF               	movwf	btemp+1
  7474     0B83  087F               	movf	btemp+1,w
  7475     0B84  07FA               	addwf	___fladd@bexp,f
  7476     0B85  2C3E               	goto	l2668
  7477     0B86                     l2632:
  7478     0B86  0873               	movf	___fladd@b+3,w
  7479     0B87  3A80               	xorlw	128
  7480     0B88  00FF               	movwf	btemp+1
  7481     0B89  0877               	movf	___fladd@a+3,w
  7482     0B8A  3A80               	xorlw	128
  7483     0B8B  027F               	subwf	btemp+1,w
  7484     0B8C  1D03               	skipz
  7485     0B8D  2B98               	goto	u2773
  7486     0B8E  0876               	movf	___fladd@a+2,w
  7487     0B8F  0272               	subwf	___fladd@b+2,w
  7488     0B90  1D03               	skipz
  7489     0B91  2B98               	goto	u2773
  7490     0B92  0875               	movf	___fladd@a+1,w
  7491     0B93  0271               	subwf	___fladd@b+1,w
  7492     0B94  1D03               	skipz
  7493     0B95  2B98               	goto	u2773
  7494     0B96  0874               	movf	___fladd@a,w
  7495     0B97  0270               	subwf	___fladd@b,w
  7496     0B98                     u2773:
  7497     0B98  1803               	skipnc
  7498     0B99  2B9B               	goto	u2771
  7499     0B9A  2B9C               	goto	u2770
  7500     0B9B                     u2771:
  7501     0B9B  2BF6               	goto	l2644
  7502     0B9C                     u2770:
  7503     0B9C                     l2634:
  7504     0B9C  30FF               	movlw	255
  7505     0B9D  1283               	bcf	3,5	;RP0=0, select bank0
  7506     0B9E  1303               	bcf	3,6	;RP1=0, select bank0
  7507     0B9F  00A0               	movwf	??___fladd
  7508     0BA0  30FF               	movlw	255
  7509     0BA1  00A1               	movwf	??___fladd+1
  7510     0BA2  30FF               	movlw	255
  7511     0BA3  00A2               	movwf	??___fladd+2
  7512     0BA4  30FF               	movlw	255
  7513     0BA5  00A3               	movwf	??___fladd+3
  7514     0BA6  0874               	movf	___fladd@a,w
  7515     0BA7  00A4               	movwf	??___fladd+4
  7516     0BA8  0875               	movf	___fladd@a+1,w
  7517     0BA9  00A5               	movwf	??___fladd+5
  7518     0BAA  0876               	movf	___fladd@a+2,w
  7519     0BAB  00A6               	movwf	??___fladd+6
  7520     0BAC  0877               	movf	___fladd@a+3,w
  7521     0BAD  00A7               	movwf	??___fladd+7
  7522     0BAE  0870               	movf	___fladd@b,w
  7523     0BAF  02A4               	subwf	??___fladd+4,f
  7524     0BB0  0871               	movf	___fladd@b+1,w
  7525     0BB1  1C03               	skipc
  7526     0BB2  0F71               	incfsz	___fladd@b+1,w
  7527     0BB3  2BB5               	goto	u2781
  7528     0BB4  2BB6               	goto	u2782
  7529     0BB5                     u2781:
  7530     0BB5  02A5               	subwf	??___fladd+5,f
  7531     0BB6                     u2782:
  7532     0BB6  0872               	movf	___fladd@b+2,w
  7533     0BB7  1C03               	skipc
  7534     0BB8  0F72               	incfsz	___fladd@b+2,w
  7535     0BB9  2BBB               	goto	u2783
  7536     0BBA  2BBC               	goto	u2784
  7537     0BBB                     u2783:
  7538     0BBB  02A6               	subwf	??___fladd+6,f
  7539     0BBC                     u2784:
  7540     0BBC  0873               	movf	___fladd@b+3,w
  7541     0BBD  1C03               	skipc
  7542     0BBE  0F73               	incfsz	___fladd@b+3,w
  7543     0BBF  2BC1               	goto	u2785
  7544     0BC0  2BC2               	goto	u2786
  7545     0BC1                     u2785:
  7546     0BC1  02A7               	subwf	??___fladd+7,f
  7547     0BC2                     u2786:
  7548     0BC2  0824               	movf	??___fladd+4,w
  7549     0BC3  07A0               	addwf	??___fladd,f
  7550     0BC4  0825               	movf	??___fladd+5,w
  7551     0BC5  1803               	skipnc
  7552     0BC6  0F25               	incfsz	??___fladd+5,w
  7553     0BC7  2BC9               	goto	u2790
  7554     0BC8  2BCA               	goto	u2791
  7555     0BC9                     u2790:
  7556     0BC9  07A1               	addwf	??___fladd+1,f
  7557     0BCA                     u2791:
  7558     0BCA  0826               	movf	??___fladd+6,w
  7559     0BCB  1803               	skipnc
  7560     0BCC  0F26               	incfsz	??___fladd+6,w
  7561     0BCD  2BCF               	goto	u2792
  7562     0BCE  2BD0               	goto	u2793
  7563     0BCF                     u2792:
  7564     0BCF  07A2               	addwf	??___fladd+2,f
  7565     0BD0                     u2793:
  7566     0BD0  0827               	movf	??___fladd+7,w
  7567     0BD1  1803               	skipnc
  7568     0BD2  0A27               	incf	??___fladd+7,w
  7569     0BD3  07A3               	addwf	??___fladd+3,f
  7570     0BD4  0823               	movf	??___fladd+3,w
  7571     0BD5  00F3               	movwf	___fladd@b+3
  7572     0BD6  0822               	movf	??___fladd+2,w
  7573     0BD7  00F2               	movwf	___fladd@b+2
  7574     0BD8  0821               	movf	??___fladd+1,w
  7575     0BD9  00F1               	movwf	___fladd@b+1
  7576     0BDA  0820               	movf	??___fladd,w
  7577     0BDB  00F0               	movwf	___fladd@b
  7578     0BDC                     l2636:
  7579     0BDC  3080               	movlw	128
  7580     0BDD  00FF               	movwf	btemp+1
  7581     0BDE  087F               	movf	btemp+1,w
  7582     0BDF  06F8               	xorwf	___fladd@signs,f
  7583     0BE0                     l2638:
  7584     0BE0  09FB               	comf	___fladd@grs,f
  7585     0BE1  0AFB               	incf	___fladd@grs,f
  7586     0BE2                     l2640:
  7587     0BE2  087B               	movf	___fladd@grs,w
  7588     0BE3  1D03               	btfss	3,2
  7589     0BE4  2BE6               	goto	u2801
  7590     0BE5  2BE7               	goto	u2800
  7591     0BE6                     u2801:
  7592     0BE6  2C04               	goto	l814
  7593     0BE7                     u2800:
  7594     0BE7                     l2642:
  7595     0BE7  3001               	movlw	1
  7596     0BE8  07F0               	addwf	___fladd@b,f
  7597     0BE9  3000               	movlw	0
  7598     0BEA  1803               	skipnc
  7599     0BEB  3001               	movlw	1
  7600     0BEC  07F1               	addwf	___fladd@b+1,f
  7601     0BED  3000               	movlw	0
  7602     0BEE  1803               	skipnc
  7603     0BEF  3001               	movlw	1
  7604     0BF0  07F2               	addwf	___fladd@b+2,f
  7605     0BF1  3000               	movlw	0
  7606     0BF2  1803               	skipnc
  7607     0BF3  3001               	movlw	1
  7608     0BF4  07F3               	addwf	___fladd@b+3,f
  7609     0BF5  2C04               	goto	l814
  7610     0BF6                     l2644:
  7611     0BF6  0874               	movf	___fladd@a,w
  7612     0BF7  02F0               	subwf	___fladd@b,f
  7613     0BF8  0875               	movf	___fladd@a+1,w
  7614     0BF9  1C03               	skipc
  7615     0BFA  0F75               	incfsz	___fladd@a+1,w
  7616     0BFB  02F1               	subwf	___fladd@b+1,f
  7617     0BFC  0876               	movf	___fladd@a+2,w
  7618     0BFD  1C03               	skipc
  7619     0BFE  0F76               	incfsz	___fladd@a+2,w
  7620     0BFF  02F2               	subwf	___fladd@b+2,f
  7621     0C00  0877               	movf	___fladd@a+3,w
  7622     0C01  1C03               	skipc
  7623     0C02  0F77               	incfsz	___fladd@a+3,w
  7624     0C03  02F3               	subwf	___fladd@b+3,f
  7625     0C04                     l814:
  7626     0C04  0873               	movf	___fladd@b+3,w
  7627     0C05  0472               	iorwf	___fladd@b+2,w
  7628     0C06  0471               	iorwf	___fladd@b+1,w
  7629     0C07  0470               	iorwf	___fladd@b,w
  7630     0C08  1D03               	skipz
  7631     0C09  2C0B               	goto	u2811
  7632     0C0A  2C0C               	goto	u2810
  7633     0C0B                     u2811:
  7634     0C0B  2C3A               	goto	l2666
  7635     0C0C                     u2810:
  7636     0C0C                     l2646:
  7637     0C0C  087B               	movf	___fladd@grs,w
  7638     0C0D  1D03               	btfss	3,2
  7639     0C0E  2C10               	goto	u2821
  7640     0C0F  2C11               	goto	u2820
  7641     0C10                     u2821:
  7642     0C10  2C3A               	goto	l2666
  7643     0C11                     u2820:
  7644     0C11                     l2648:
  7645     0C11  3000               	movlw	0
  7646     0C12  00F3               	movwf	?___fladd+3
  7647     0C13  3000               	movlw	0
  7648     0C14  00F2               	movwf	?___fladd+2
  7649     0C15  3000               	movlw	0
  7650     0C16  00F1               	movwf	?___fladd+1
  7651     0C17  3000               	movlw	0
  7652     0C18  00F0               	movwf	?___fladd
  7653     0C19  2CBA               	goto	l806
  7654     0C1A                     l2652:
  7655     0C1A  3001               	movlw	1
  7656     0C1B  1283               	bcf	3,5	;RP0=0, select bank0
  7657     0C1C  1303               	bcf	3,6	;RP1=0, select bank0
  7658     0C1D  00A0               	movwf	??___fladd
  7659     0C1E                     u2835:
  7660     0C1E  1003               	clrc
  7661     0C1F  0DF0               	rlf	___fladd@b,f
  7662     0C20  0DF1               	rlf	___fladd@b+1,f
  7663     0C21  0DF2               	rlf	___fladd@b+2,f
  7664     0C22  0DF3               	rlf	___fladd@b+3,f
  7665     0C23  0BA0               	decfsz	??___fladd,f
  7666     0C24  2C1E               	goto	u2835
  7667     0C25                     l2654:
  7668     0C25  1FFB               	btfss	___fladd@grs,7
  7669     0C26  2C28               	goto	u2841
  7670     0C27  2C29               	goto	u2840
  7671     0C28                     u2841:
  7672     0C28  2C2A               	goto	l818
  7673     0C29                     u2840:
  7674     0C29                     l2656:
  7675     0C29  1470               	bsf	___fladd@b,0
  7676     0C2A                     l818:
  7677     0C2A  1C7B               	btfss	___fladd@grs,0
  7678     0C2B  2C2D               	goto	u2851
  7679     0C2C  2C2E               	goto	u2850
  7680     0C2D                     u2851:
  7681     0C2D  2C31               	goto	l2660
  7682     0C2E                     u2850:
  7683     0C2E                     l2658:
  7684     0C2E  1403               	setc
  7685     0C2F  0DFB               	rlf	___fladd@grs,f
  7686     0C30  2C33               	goto	l2662
  7687     0C31                     l2660:
  7688     0C31  1003               	clrc
  7689     0C32  0DFB               	rlf	___fladd@grs,f
  7690     0C33                     l2662:
  7691     0C33  087A               	movf	___fladd@bexp,w
  7692     0C34  1903               	btfsc	3,2
  7693     0C35  2C37               	goto	u2861
  7694     0C36  2C38               	goto	u2860
  7695     0C37                     u2861:
  7696     0C37  2C3A               	goto	l2666
  7697     0C38                     u2860:
  7698     0C38                     l2664:
  7699     0C38  3001               	movlw	1
  7700     0C39  02FA               	subwf	___fladd@bexp,f
  7701     0C3A                     l2666:
  7702     0C3A  1FF2               	btfss	___fladd@b+2,7
  7703     0C3B  2C3D               	goto	u2871
  7704     0C3C  2C3E               	goto	u2870
  7705     0C3D                     u2871:
  7706     0C3D  2C1A               	goto	l2652
  7707     0C3E                     u2870:
  7708     0C3E                     l2668:
  7709     0C3E  01F9               	clrf	___fladd@aexp
  7710     0C3F                     l2670:
  7711     0C3F  1FFB               	btfss	___fladd@grs,7
  7712     0C40  2C42               	goto	u2881
  7713     0C41  2C43               	goto	u2880
  7714     0C42                     u2881:
  7715     0C42  2C51               	goto	l2678
  7716     0C43                     u2880:
  7717     0C43                     l2672:
  7718     0C43  087B               	movf	___fladd@grs,w
  7719     0C44  397F               	andlw	127
  7720     0C45  1903               	btfsc	3,2
  7721     0C46  2C48               	goto	u2891
  7722     0C47  2C49               	goto	u2890
  7723     0C48                     u2891:
  7724     0C48  2C4C               	goto	l824
  7725     0C49                     u2890:
  7726     0C49                     l2674:
  7727     0C49  01F9               	clrf	___fladd@aexp
  7728     0C4A  0AF9               	incf	___fladd@aexp,f
  7729     0C4B  2C51               	goto	l2678
  7730     0C4C                     l824:
  7731     0C4C  1C70               	btfss	___fladd@b,0
  7732     0C4D  2C4F               	goto	u2901
  7733     0C4E  2C50               	goto	u2900
  7734     0C4F                     u2901:
  7735     0C4F  2C51               	goto	l2678
  7736     0C50                     u2900:
  7737     0C50  2C49               	goto	l2674
  7738     0C51                     l2678:
  7739     0C51  0879               	movf	___fladd@aexp,w
  7740     0C52  1903               	btfsc	3,2
  7741     0C53  2C55               	goto	u2911
  7742     0C54  2C56               	goto	u2910
  7743     0C55                     u2911:
  7744     0C55  2C8C               	goto	l2688
  7745     0C56                     u2910:
  7746     0C56                     l2680:
  7747     0C56  3001               	movlw	1
  7748     0C57  07F0               	addwf	___fladd@b,f
  7749     0C58  3000               	movlw	0
  7750     0C59  1803               	skipnc
  7751     0C5A  3001               	movlw	1
  7752     0C5B  07F1               	addwf	___fladd@b+1,f
  7753     0C5C  3000               	movlw	0
  7754     0C5D  1803               	skipnc
  7755     0C5E  3001               	movlw	1
  7756     0C5F  07F2               	addwf	___fladd@b+2,f
  7757     0C60  3000               	movlw	0
  7758     0C61  1803               	skipnc
  7759     0C62  3001               	movlw	1
  7760     0C63  07F3               	addwf	___fladd@b+3,f
  7761     0C64                     l2682:
  7762     0C64  1C73               	btfss	___fladd@b+3,0
  7763     0C65  2C67               	goto	u2921
  7764     0C66  2C68               	goto	u2920
  7765     0C67                     u2921:
  7766     0C67  2C8C               	goto	l2688
  7767     0C68                     u2920:
  7768     0C68                     l2684:
  7769     0C68  0870               	movf	___fladd@b,w
  7770     0C69  1283               	bcf	3,5	;RP0=0, select bank0
  7771     0C6A  1303               	bcf	3,6	;RP1=0, select bank0
  7772     0C6B  00A0               	movwf	??___fladd
  7773     0C6C  0871               	movf	___fladd@b+1,w
  7774     0C6D  00A1               	movwf	??___fladd+1
  7775     0C6E  0872               	movf	___fladd@b+2,w
  7776     0C6F  00A2               	movwf	??___fladd+2
  7777     0C70  0873               	movf	___fladd@b+3,w
  7778     0C71  00A3               	movwf	??___fladd+3
  7779     0C72  3001               	movlw	1
  7780     0C73  00A4               	movwf	??___fladd+4
  7781     0C74                     u2935:
  7782     0C74  0D23               	rlf	??___fladd+3,w
  7783     0C75  0CA3               	rrf	??___fladd+3,f
  7784     0C76  0CA2               	rrf	??___fladd+2,f
  7785     0C77  0CA1               	rrf	??___fladd+1,f
  7786     0C78  0CA0               	rrf	??___fladd,f
  7787     0C79                     u2930:
  7788     0C79  0BA4               	decfsz	??___fladd+4,f
  7789     0C7A  2C74               	goto	u2935
  7790     0C7B  0823               	movf	??___fladd+3,w
  7791     0C7C  00F3               	movwf	___fladd@b+3
  7792     0C7D  0822               	movf	??___fladd+2,w
  7793     0C7E  00F2               	movwf	___fladd@b+2
  7794     0C7F  0821               	movf	??___fladd+1,w
  7795     0C80  00F1               	movwf	___fladd@b+1
  7796     0C81  0820               	movf	??___fladd,w
  7797     0C82  00F0               	movwf	___fladd@b
  7798     0C83  0A7A               	incf	___fladd@bexp,w
  7799     0C84  1903               	btfsc	3,2
  7800     0C85  2C87               	goto	u2941
  7801     0C86  2C88               	goto	u2940
  7802     0C87                     u2941:
  7803     0C87  2C8C               	goto	l2688
  7804     0C88                     u2940:
  7805     0C88                     l2686:
  7806     0C88  3001               	movlw	1
  7807     0C89  00FF               	movwf	btemp+1
  7808     0C8A  087F               	movf	btemp+1,w
  7809     0C8B  07FA               	addwf	___fladd@bexp,f
  7810     0C8C                     l2688:
  7811     0C8C  0A7A               	incf	___fladd@bexp,w
  7812     0C8D  1903               	btfsc	3,2
  7813     0C8E  2C90               	goto	u2951
  7814     0C8F  2C91               	goto	u2950
  7815     0C90                     u2951:
  7816     0C90  2C96               	goto	l2692
  7817     0C91                     u2950:
  7818     0C91                     l2690:
  7819     0C91  087A               	movf	___fladd@bexp,w
  7820     0C92  1D03               	btfss	3,2
  7821     0C93  2C95               	goto	u2961
  7822     0C94  2C96               	goto	u2960
  7823     0C95                     u2961:
  7824     0C95  2CA4               	goto	l2698
  7825     0C96                     u2960:
  7826     0C96                     l2692:
  7827     0C96  3000               	movlw	0
  7828     0C97  00F3               	movwf	___fladd@b+3
  7829     0C98  3000               	movlw	0
  7830     0C99  00F2               	movwf	___fladd@b+2
  7831     0C9A  3000               	movlw	0
  7832     0C9B  00F1               	movwf	___fladd@b+1
  7833     0C9C  3000               	movlw	0
  7834     0C9D  00F0               	movwf	___fladd@b
  7835     0C9E                     l2694:
  7836     0C9E  087A               	movf	___fladd@bexp,w
  7837     0C9F  1D03               	btfss	3,2
  7838     0CA0  2CA2               	goto	u2971
  7839     0CA1  2CA3               	goto	u2970
  7840     0CA2                     u2971:
  7841     0CA2  2CA4               	goto	l2698
  7842     0CA3                     u2970:
  7843     0CA3                     l2696:
  7844     0CA3  01F8               	clrf	___fladd@signs
  7845     0CA4                     l2698:
  7846     0CA4  1C7A               	btfss	___fladd@bexp,0
  7847     0CA5  2CA7               	goto	u2981
  7848     0CA6  2CA8               	goto	u2980
  7849     0CA7                     u2981:
  7850     0CA7  2CAA               	goto	l2702
  7851     0CA8                     u2980:
  7852     0CA8                     l2700:
  7853     0CA8  17F2               	bsf	___fladd@b+2,7
  7854     0CA9  2CAE               	goto	l2704
  7855     0CAA                     l2702:
  7856     0CAA  307F               	movlw	127
  7857     0CAB  00FF               	movwf	btemp+1
  7858     0CAC  087F               	movf	btemp+1,w
  7859     0CAD  05F2               	andwf	___fladd@b+2,f
  7860     0CAE                     l2704:
  7861     0CAE  087A               	movf	___fladd@bexp,w
  7862     0CAF  1283               	bcf	3,5	;RP0=0, select bank0
  7863     0CB0  1303               	bcf	3,6	;RP1=0, select bank0
  7864     0CB1  00A0               	movwf	??___fladd
  7865     0CB2  1003               	clrc
  7866     0CB3  0C20               	rrf	??___fladd,w
  7867     0CB4  00F3               	movwf	___fladd@b+3
  7868     0CB5                     l2706:
  7869     0CB5  1FF8               	btfss	___fladd@signs,7
  7870     0CB6  2CB8               	goto	u2991
  7871     0CB7  2CB9               	goto	u2990
  7872     0CB8                     u2991:
  7873     0CB8  2CBA               	goto	l836
  7874     0CB9                     u2990:
  7875     0CB9                     l2708:
  7876     0CB9  17F3               	bsf	___fladd@b+3,7
  7877     0CBA                     l836:
  7878     0CBA                     l806:
  7879     0CBA  0008               	return
  7880     0CBB                     __end_of___fladd:
  7881                           
  7882                           	psect	text33
  7883     175E                     __ptext33:	
  7884 ;; *************** function ___flge *****************
  7885 ;; Defined at:
  7886 ;;		line 4 in file "E:\XC8 Compiler\pic\sources\c90\common\flge.c"
  7887 ;; Parameters:    Size  Location     Type
  7888 ;;  ff1             4    0[COMMON] unsigned char 
  7889 ;;  ff2             4    4[COMMON] unsigned char 
  7890 ;; Auto vars:     Size  Location     Type
  7891 ;;		None
  7892 ;; Return value:  Size  Location     Type
  7893 ;;		None               void
  7894 ;; Registers used:
  7895 ;;		wreg, status,2, status,0
  7896 ;; Tracked objects:
  7897 ;;		On entry : 0/0
  7898 ;;		On exit  : 0/0
  7899 ;;		Unchanged: 0/0
  7900 ;; Data sizes:     COMMON   BANK0   BANK1   BANK3   BANK2
  7901 ;;      Params:         8       0       0       0       0
  7902 ;;      Locals:         0       0       0       0       0
  7903 ;;      Temps:          4       0       0       0       0
  7904 ;;      Totals:        12       0       0       0       0
  7905 ;;Total ram usage:       12 bytes
  7906 ;; Hardware stack levels used: 1
  7907 ;; This function calls:
  7908 ;;		Nothing
  7909 ;; This function is called by:
  7910 ;;		_roundFloat
  7911 ;; This function uses a non-reentrant model
  7912 ;;
  7913                           
  7914     175E                     ___flge:	
  7915                           ;psect for function ___flge
  7916                           
  7917     175E                     l2716:	
  7918                           ;incstack = 0
  7919                           ; Regs used in ___flge: [wreg+status,2+status,0]
  7920                           
  7921     175E  3000               	movlw	0
  7922     175F  0570               	andwf	___flge@ff1,w
  7923     1760  00F8               	movwf	??___flge
  7924     1761  3000               	movlw	0
  7925     1762  0571               	andwf	___flge@ff1+1,w
  7926     1763  00F9               	movwf	??___flge+1
  7927     1764  3080               	movlw	128
  7928     1765  0572               	andwf	___flge@ff1+2,w
  7929     1766  00FA               	movwf	??___flge+2
  7930     1767  307F               	movlw	127
  7931     1768  0573               	andwf	___flge@ff1+3,w
  7932     1769  00FB               	movwf	??___flge+3
  7933     176A  087B               	movf	??___flge+3,w
  7934     176B  047A               	iorwf	??___flge+2,w
  7935     176C  0479               	iorwf	??___flge+1,w
  7936     176D  0478               	iorwf	??___flge,w
  7937     176E  1D03               	skipz
  7938     176F  2F71               	goto	u3001
  7939     1770  2F72               	goto	u3000
  7940     1771                     u3001:
  7941     1771  2F7A               	goto	l674
  7942     1772                     u3000:
  7943     1772                     l2718:
  7944     1772  3000               	movlw	0
  7945     1773  00F3               	movwf	___flge@ff1+3
  7946     1774  3000               	movlw	0
  7947     1775  00F2               	movwf	___flge@ff1+2
  7948     1776  3000               	movlw	0
  7949     1777  00F1               	movwf	___flge@ff1+1
  7950     1778  3000               	movlw	0
  7951     1779  00F0               	movwf	___flge@ff1
  7952     177A                     l674:
  7953     177A  3000               	movlw	0
  7954     177B  0574               	andwf	___flge@ff2,w
  7955     177C  00F8               	movwf	??___flge
  7956     177D  3000               	movlw	0
  7957     177E  0575               	andwf	___flge@ff2+1,w
  7958     177F  00F9               	movwf	??___flge+1
  7959     1780  3080               	movlw	128
  7960     1781  0576               	andwf	___flge@ff2+2,w
  7961     1782  00FA               	movwf	??___flge+2
  7962     1783  307F               	movlw	127
  7963     1784  0577               	andwf	___flge@ff2+3,w
  7964     1785  00FB               	movwf	??___flge+3
  7965     1786  087B               	movf	??___flge+3,w
  7966     1787  047A               	iorwf	??___flge+2,w
  7967     1788  0479               	iorwf	??___flge+1,w
  7968     1789  0478               	iorwf	??___flge,w
  7969     178A  1D03               	skipz
  7970     178B  2F8D               	goto	u3011
  7971     178C  2F8E               	goto	u3010
  7972     178D                     u3011:
  7973     178D  2F96               	goto	l2722
  7974     178E                     u3010:
  7975     178E                     l2720:
  7976     178E  3000               	movlw	0
  7977     178F  00F7               	movwf	___flge@ff2+3
  7978     1790  3000               	movlw	0
  7979     1791  00F6               	movwf	___flge@ff2+2
  7980     1792  3000               	movlw	0
  7981     1793  00F5               	movwf	___flge@ff2+1
  7982     1794  3000               	movlw	0
  7983     1795  00F4               	movwf	___flge@ff2
  7984     1796                     l2722:
  7985     1796  1FF3               	btfss	___flge@ff1+3,7
  7986     1797  2F99               	goto	u3021
  7987     1798  2F9A               	goto	u3020
  7988     1799                     u3021:
  7989     1799  2FBE               	goto	l2726
  7990     179A                     u3020:
  7991     179A                     l2724:
  7992     179A  3000               	movlw	0
  7993     179B  00F8               	movwf	??___flge
  7994     179C  3000               	movlw	0
  7995     179D  00F9               	movwf	??___flge+1
  7996     179E  3000               	movlw	0
  7997     179F  00FA               	movwf	??___flge+2
  7998     17A0  3080               	movlw	128
  7999     17A1  00FB               	movwf	??___flge+3
  8000     17A2  0870               	movf	___flge@ff1,w
  8001     17A3  02F8               	subwf	??___flge,f
  8002     17A4  0871               	movf	___flge@ff1+1,w
  8003     17A5  1C03               	skipc
  8004     17A6  0F71               	incfsz	___flge@ff1+1,w
  8005     17A7  2FA9               	goto	u3031
  8006     17A8  2FAA               	goto	u3032
  8007     17A9                     u3031:
  8008     17A9  02F9               	subwf	??___flge+1,f
  8009     17AA                     u3032:
  8010     17AA  0872               	movf	___flge@ff1+2,w
  8011     17AB  1C03               	skipc
  8012     17AC  0F72               	incfsz	___flge@ff1+2,w
  8013     17AD  2FAF               	goto	u3033
  8014     17AE  2FB0               	goto	u3034
  8015     17AF                     u3033:
  8016     17AF  02FA               	subwf	??___flge+2,f
  8017     17B0                     u3034:
  8018     17B0  0873               	movf	___flge@ff1+3,w
  8019     17B1  1C03               	skipc
  8020     17B2  0F73               	incfsz	___flge@ff1+3,w
  8021     17B3  2FB5               	goto	u3035
  8022     17B4  2FB6               	goto	u3036
  8023     17B5                     u3035:
  8024     17B5  02FB               	subwf	??___flge+3,f
  8025     17B6                     u3036:
  8026     17B6  087B               	movf	??___flge+3,w
  8027     17B7  00F3               	movwf	___flge@ff1+3
  8028     17B8  087A               	movf	??___flge+2,w
  8029     17B9  00F2               	movwf	___flge@ff1+2
  8030     17BA  0879               	movf	??___flge+1,w
  8031     17BB  00F1               	movwf	___flge@ff1+1
  8032     17BC  0878               	movf	??___flge,w
  8033     17BD  00F0               	movwf	___flge@ff1
  8034     17BE                     l2726:
  8035     17BE  1FF7               	btfss	___flge@ff2+3,7
  8036     17BF  2FC1               	goto	u3041
  8037     17C0  2FC2               	goto	u3040
  8038     17C1                     u3041:
  8039     17C1  2FE6               	goto	l677
  8040     17C2                     u3040:
  8041     17C2                     l2728:
  8042     17C2  3000               	movlw	0
  8043     17C3  00F8               	movwf	??___flge
  8044     17C4  3000               	movlw	0
  8045     17C5  00F9               	movwf	??___flge+1
  8046     17C6  3000               	movlw	0
  8047     17C7  00FA               	movwf	??___flge+2
  8048     17C8  3080               	movlw	128
  8049     17C9  00FB               	movwf	??___flge+3
  8050     17CA  0874               	movf	___flge@ff2,w
  8051     17CB  02F8               	subwf	??___flge,f
  8052     17CC  0875               	movf	___flge@ff2+1,w
  8053     17CD  1C03               	skipc
  8054     17CE  0F75               	incfsz	___flge@ff2+1,w
  8055     17CF  2FD1               	goto	u3051
  8056     17D0  2FD2               	goto	u3052
  8057     17D1                     u3051:
  8058     17D1  02F9               	subwf	??___flge+1,f
  8059     17D2                     u3052:
  8060     17D2  0876               	movf	___flge@ff2+2,w
  8061     17D3  1C03               	skipc
  8062     17D4  0F76               	incfsz	___flge@ff2+2,w
  8063     17D5  2FD7               	goto	u3053
  8064     17D6  2FD8               	goto	u3054
  8065     17D7                     u3053:
  8066     17D7  02FA               	subwf	??___flge+2,f
  8067     17D8                     u3054:
  8068     17D8  0877               	movf	___flge@ff2+3,w
  8069     17D9  1C03               	skipc
  8070     17DA  0F77               	incfsz	___flge@ff2+3,w
  8071     17DB  2FDD               	goto	u3055
  8072     17DC  2FDE               	goto	u3056
  8073     17DD                     u3055:
  8074     17DD  02FB               	subwf	??___flge+3,f
  8075     17DE                     u3056:
  8076     17DE  087B               	movf	??___flge+3,w
  8077     17DF  00F7               	movwf	___flge@ff2+3
  8078     17E0  087A               	movf	??___flge+2,w
  8079     17E1  00F6               	movwf	___flge@ff2+2
  8080     17E2  0879               	movf	??___flge+1,w
  8081     17E3  00F5               	movwf	___flge@ff2+1
  8082     17E4  0878               	movf	??___flge,w
  8083     17E5  00F4               	movwf	___flge@ff2
  8084     17E6                     l677:
  8085     17E6  3080               	movlw	128
  8086     17E7  06F3               	xorwf	___flge@ff1+3,f
  8087     17E8  3080               	movlw	128
  8088     17E9  06F7               	xorwf	___flge@ff2+3,f
  8089     17EA  0877               	movf	___flge@ff2+3,w
  8090     17EB  0273               	subwf	___flge@ff1+3,w
  8091     17EC  1D03               	skipz
  8092     17ED  2FF8               	goto	u3065
  8093     17EE  0876               	movf	___flge@ff2+2,w
  8094     17EF  0272               	subwf	___flge@ff1+2,w
  8095     17F0  1D03               	skipz
  8096     17F1  2FF8               	goto	u3065
  8097     17F2  0875               	movf	___flge@ff2+1,w
  8098     17F3  0271               	subwf	___flge@ff1+1,w
  8099     17F4  1D03               	skipz
  8100     17F5  2FF8               	goto	u3065
  8101     17F6  0874               	movf	___flge@ff2,w
  8102     17F7  0270               	subwf	___flge@ff1,w
  8103     17F8                     u3065:
  8104     17F8  1803               	skipnc
  8105     17F9  2FFB               	goto	u3061
  8106     17FA  2FFC               	goto	u3060
  8107     17FB                     u3061:
  8108     17FB  2FFE               	goto	l2732
  8109     17FC                     u3060:
  8110     17FC                     l2730:
  8111     17FC  1003               	clrc
  8112     17FD  2FFF               	goto	l678
  8113     17FE                     l2732:
  8114     17FE  1403               	setc
  8115     17FF                     l678:
  8116     17FF  0008               	return
  8117     1800                     __end_of___flge:
  8118                           
  8119                           	psect	text34
  8120     12DC                     __ptext34:	
  8121 ;; *************** function ___wmul *****************
  8122 ;; Defined at:
  8123 ;;		line 15 in file "E:\XC8 Compiler\pic\sources\c90\common\Umul16.c"
  8124 ;; Parameters:    Size  Location     Type
  8125 ;;  multiplier      2    0[COMMON] unsigned int 
  8126 ;;  multiplicand    2    2[COMMON] unsigned int 
  8127 ;; Auto vars:     Size  Location     Type
  8128 ;;  product         2    4[COMMON] unsigned int 
  8129 ;; Return value:  Size  Location     Type
  8130 ;;                  2    0[COMMON] unsigned int 
  8131 ;; Registers used:
  8132 ;;		wreg, status,2, status,0
  8133 ;; Tracked objects:
  8134 ;;		On entry : 0/0
  8135 ;;		On exit  : 0/0
  8136 ;;		Unchanged: 0/0
  8137 ;; Data sizes:     COMMON   BANK0   BANK1   BANK3   BANK2
  8138 ;;      Params:         4       0       0       0       0
  8139 ;;      Locals:         2       0       0       0       0
  8140 ;;      Temps:          0       0       0       0       0
  8141 ;;      Totals:         6       0       0       0       0
  8142 ;;Total ram usage:        6 bytes
  8143 ;; Hardware stack levels used: 1
  8144 ;; This function calls:
  8145 ;;		Nothing
  8146 ;; This function is called by:
  8147 ;;		_printInteger
  8148 ;;		_LM35_readData
  8149 ;;		_HIH5030_readData
  8150 ;; This function uses a non-reentrant model
  8151 ;;
  8152                           
  8153     12DC                     ___wmul:	
  8154                           ;psect for function ___wmul
  8155                           
  8156     12DC                     l2884:	
  8157                           ;incstack = 0
  8158                           ; Regs used in ___wmul: [wreg+status,2+status,0]
  8159                           
  8160     12DC  01F4               	clrf	___wmul@product
  8161     12DD  01F5               	clrf	___wmul@product+1
  8162     12DE                     l2886:
  8163     12DE  1C70               	btfss	___wmul@multiplier,0
  8164     12DF  2AE1               	goto	u3391
  8165     12E0  2AE2               	goto	u3390
  8166     12E1                     u3391:
  8167     12E1  2AE8               	goto	l500
  8168     12E2                     u3390:
  8169     12E2                     l2888:
  8170     12E2  0872               	movf	___wmul@multiplicand,w
  8171     12E3  07F4               	addwf	___wmul@product,f
  8172     12E4  1803               	skipnc
  8173     12E5  0AF5               	incf	___wmul@product+1,f
  8174     12E6  0873               	movf	___wmul@multiplicand+1,w
  8175     12E7  07F5               	addwf	___wmul@product+1,f
  8176     12E8                     l500:
  8177     12E8  3001               	movlw	1
  8178     12E9                     u3405:
  8179     12E9  1003               	clrc
  8180     12EA  0DF2               	rlf	___wmul@multiplicand,f
  8181     12EB  0DF3               	rlf	___wmul@multiplicand+1,f
  8182     12EC  3EFF               	addlw	-1
  8183     12ED  1D03               	skipz
  8184     12EE  2AE9               	goto	u3405
  8185     12EF                     l2890:
  8186     12EF  3001               	movlw	1
  8187     12F0                     u3415:
  8188     12F0  1003               	clrc
  8189     12F1  0CF1               	rrf	___wmul@multiplier+1,f
  8190     12F2  0CF0               	rrf	___wmul@multiplier,f
  8191     12F3  3EFF               	addlw	-1
  8192     12F4  1D03               	skipz
  8193     12F5  2AF0               	goto	u3415
  8194     12F6                     l2892:
  8195     12F6  0870               	movf	___wmul@multiplier,w
  8196     12F7  0471               	iorwf	___wmul@multiplier+1,w
  8197     12F8  1D03               	btfss	3,2
  8198     12F9  2AFB               	goto	u3421
  8199     12FA  2AFC               	goto	u3420
  8200     12FB                     u3421:
  8201     12FB  2ADE               	goto	l2886
  8202     12FC                     u3420:
  8203     12FC                     l2894:
  8204     12FC  0875               	movf	___wmul@product+1,w
  8205     12FD  00F1               	movwf	?___wmul+1
  8206     12FE  0874               	movf	___wmul@product,w
  8207     12FF  00F0               	movwf	?___wmul
  8208     1300                     l502:
  8209     1300  0008               	return
  8210     1301                     __end_of___wmul:
  8211                           
  8212                           	psect	text35
  8213     0CBB                     __ptext35:	
  8214 ;; *************** function ___flmul *****************
  8215 ;; Defined at:
  8216 ;;		line 8 in file "E:\XC8 Compiler\pic\sources\c90\common\sprcmul.c"
  8217 ;; Parameters:    Size  Location     Type
  8218 ;;  b               4   34[BANK0 ] unsigned int 
  8219 ;;  a               4   38[BANK0 ] unsigned int 
  8220 ;; Auto vars:     Size  Location     Type
  8221 ;;  prod            4   54[BANK0 ] struct .
  8222 ;;  grs             4   48[BANK0 ] unsigned long 
  8223 ;;  temp            2   58[BANK0 ] struct .
  8224 ;;  bexp            1   53[BANK0 ] unsigned char 
  8225 ;;  aexp            1   52[BANK0 ] unsigned char 
  8226 ;;  sign            1   47[BANK0 ] unsigned char 
  8227 ;; Return value:  Size  Location     Type
  8228 ;;                  4   34[BANK0 ] unsigned char 
  8229 ;; Registers used:
  8230 ;;		wreg, status,2, status,0, btemp+1, pclath, cstack
  8231 ;; Tracked objects:
  8232 ;;		On entry : 0/0
  8233 ;;		On exit  : 0/0
  8234 ;;		Unchanged: 0/0
  8235 ;; Data sizes:     COMMON   BANK0   BANK1   BANK3   BANK2
  8236 ;;      Params:         0       8       0       0       0
  8237 ;;      Locals:         0      13       0       0       0
  8238 ;;      Temps:          0       5       0       0       0
  8239 ;;      Totals:         0      26       0       0       0
  8240 ;;Total ram usage:       26 bytes
  8241 ;; Hardware stack levels used: 1
  8242 ;; Hardware stack levels required when called: 1
  8243 ;; This function calls:
  8244 ;;		__Umul8_16
  8245 ;; This function is called by:
  8246 ;;		_LM35_readData
  8247 ;;		_HIH5030_readData
  8248 ;; This function uses a non-reentrant model
  8249 ;;
  8250                           
  8251     0CBB                     ___flmul:	
  8252                           ;psect for function ___flmul
  8253                           
  8254     0CBB                     l3126:	
  8255                           ;incstack = 0
  8256                           ; Regs used in ___flmul: [wreg+status,2+status,0+btemp+1+pclath+cstack]
  8257                           
  8258     0CBB  1283               	bcf	3,5	;RP0=0, select bank0
  8259     0CBC  1303               	bcf	3,6	;RP1=0, select bank0
  8260     0CBD  0845               	movf	___flmul@b+3,w
  8261     0CBE  3980               	andlw	128
  8262     0CBF  00CF               	movwf	___flmul@sign
  8263     0CC0                     l3128:
  8264     0CC0  0845               	movf	___flmul@b+3,w
  8265     0CC1  00CA               	movwf	??___flmul
  8266     0CC2  074A               	addwf	??___flmul,w
  8267     0CC3  00D5               	movwf	___flmul@bexp
  8268     0CC4                     l3130:
  8269     0CC4  1FC4               	btfss	___flmul@b+2,7
  8270     0CC5  2CC7               	goto	u3911
  8271     0CC6  2CC8               	goto	u3910
  8272     0CC7                     u3911:
  8273     0CC7  2CC9               	goto	l3134
  8274     0CC8                     u3910:
  8275     0CC8                     l3132:
  8276     0CC8  1455               	bsf	___flmul@bexp,0
  8277     0CC9                     l3134:
  8278     0CC9  0855               	movf	___flmul@bexp,w
  8279     0CCA  1903               	btfsc	3,2
  8280     0CCB  2CCD               	goto	u3921
  8281     0CCC  2CCE               	goto	u3920
  8282     0CCD                     u3921:
  8283     0CCD  2CDD               	goto	l3142
  8284     0CCE                     u3920:
  8285     0CCE                     l3136:
  8286     0CCE  0A55               	incf	___flmul@bexp,w
  8287     0CCF  1D03               	btfss	3,2
  8288     0CD0  2CD2               	goto	u3931
  8289     0CD1  2CD3               	goto	u3930
  8290     0CD2                     u3931:
  8291     0CD2  2CDB               	goto	l3140
  8292     0CD3                     u3930:
  8293     0CD3                     l3138:
  8294     0CD3  3000               	movlw	0
  8295     0CD4  00C5               	movwf	___flmul@b+3
  8296     0CD5  3000               	movlw	0
  8297     0CD6  00C4               	movwf	___flmul@b+2
  8298     0CD7  3000               	movlw	0
  8299     0CD8  00C3               	movwf	___flmul@b+1
  8300     0CD9  3000               	movlw	0
  8301     0CDA  00C2               	movwf	___flmul@b
  8302     0CDB                     l3140:
  8303     0CDB  17C4               	bsf	___flmul@b+2,7
  8304     0CDC  2CE5               	goto	l3144
  8305     0CDD                     l3142:
  8306     0CDD  3000               	movlw	0
  8307     0CDE  00C5               	movwf	___flmul@b+3
  8308     0CDF  3000               	movlw	0
  8309     0CE0  00C4               	movwf	___flmul@b+2
  8310     0CE1  3000               	movlw	0
  8311     0CE2  00C3               	movwf	___flmul@b+1
  8312     0CE3  3000               	movlw	0
  8313     0CE4  00C2               	movwf	___flmul@b
  8314     0CE5                     l3144:
  8315     0CE5  0849               	movf	___flmul@a+3,w
  8316     0CE6  3980               	andlw	128
  8317     0CE7  00FF               	movwf	btemp+1
  8318     0CE8  087F               	movf	btemp+1,w
  8319     0CE9  06CF               	xorwf	___flmul@sign,f
  8320     0CEA                     l3146:
  8321     0CEA  0849               	movf	___flmul@a+3,w
  8322     0CEB  00CA               	movwf	??___flmul
  8323     0CEC  074A               	addwf	??___flmul,w
  8324     0CED  00D4               	movwf	___flmul@aexp
  8325     0CEE                     l3148:
  8326     0CEE  1FC8               	btfss	___flmul@a+2,7
  8327     0CEF  2CF1               	goto	u3941
  8328     0CF0  2CF2               	goto	u3940
  8329     0CF1                     u3941:
  8330     0CF1  2CF3               	goto	l3152
  8331     0CF2                     u3940:
  8332     0CF2                     l3150:
  8333     0CF2  1454               	bsf	___flmul@aexp,0
  8334     0CF3                     l3152:
  8335     0CF3  0854               	movf	___flmul@aexp,w
  8336     0CF4  1903               	btfsc	3,2
  8337     0CF5  2CF7               	goto	u3951
  8338     0CF6  2CF8               	goto	u3950
  8339     0CF7                     u3951:
  8340     0CF7  2D07               	goto	l3160
  8341     0CF8                     u3950:
  8342     0CF8                     l3154:
  8343     0CF8  0A54               	incf	___flmul@aexp,w
  8344     0CF9  1D03               	btfss	3,2
  8345     0CFA  2CFC               	goto	u3961
  8346     0CFB  2CFD               	goto	u3960
  8347     0CFC                     u3961:
  8348     0CFC  2D05               	goto	l3158
  8349     0CFD                     u3960:
  8350     0CFD                     l3156:
  8351     0CFD  3000               	movlw	0
  8352     0CFE  00C9               	movwf	___flmul@a+3
  8353     0CFF  3000               	movlw	0
  8354     0D00  00C8               	movwf	___flmul@a+2
  8355     0D01  3000               	movlw	0
  8356     0D02  00C7               	movwf	___flmul@a+1
  8357     0D03  3000               	movlw	0
  8358     0D04  00C6               	movwf	___flmul@a
  8359     0D05                     l3158:
  8360     0D05  17C8               	bsf	___flmul@a+2,7
  8361     0D06  2D0F               	goto	l3162
  8362     0D07                     l3160:
  8363     0D07  3000               	movlw	0
  8364     0D08  00C9               	movwf	___flmul@a+3
  8365     0D09  3000               	movlw	0
  8366     0D0A  00C8               	movwf	___flmul@a+2
  8367     0D0B  3000               	movlw	0
  8368     0D0C  00C7               	movwf	___flmul@a+1
  8369     0D0D  3000               	movlw	0
  8370     0D0E  00C6               	movwf	___flmul@a
  8371     0D0F                     l3162:
  8372     0D0F  0854               	movf	___flmul@aexp,w
  8373     0D10  1903               	btfsc	3,2
  8374     0D11  2D13               	goto	u3971
  8375     0D12  2D14               	goto	u3970
  8376     0D13                     u3971:
  8377     0D13  2D19               	goto	l3166
  8378     0D14                     u3970:
  8379     0D14                     l3164:
  8380     0D14  0855               	movf	___flmul@bexp,w
  8381     0D15  1D03               	btfss	3,2
  8382     0D16  2D18               	goto	u3981
  8383     0D17  2D19               	goto	u3980
  8384     0D18                     u3981:
  8385     0D18  2D22               	goto	l3170
  8386     0D19                     u3980:
  8387     0D19                     l3166:
  8388     0D19  3000               	movlw	0
  8389     0D1A  00C5               	movwf	?___flmul+3
  8390     0D1B  3000               	movlw	0
  8391     0D1C  00C4               	movwf	?___flmul+2
  8392     0D1D  3000               	movlw	0
  8393     0D1E  00C3               	movwf	?___flmul+1
  8394     0D1F  3000               	movlw	0
  8395     0D20  00C2               	movwf	?___flmul
  8396     0D21  2FFF               	goto	l889
  8397     0D22                     l3170:
  8398     0D22  0842               	movf	___flmul@b,w
  8399     0D23  00F0               	movwf	__Umul8_16@multiplicand
  8400     0D24  0848               	movf	___flmul@a+2,w
  8401     0D25  120A  118A  2006  120A  158A  	fcall	__Umul8_16
  8402     0D2A  0871               	movf	?__Umul8_16+1,w
  8403     0D2B  1283               	bcf	3,5	;RP0=0, select bank0
  8404     0D2C  1303               	bcf	3,6	;RP1=0, select bank0
  8405     0D2D  00DB               	movwf	___flmul@temp+1
  8406     0D2E  0870               	movf	?__Umul8_16,w
  8407     0D2F  00DA               	movwf	___flmul@temp
  8408     0D30                     l3172:
  8409     0D30  085A               	movf	___flmul@temp,w
  8410     0D31  00CA               	movwf	??___flmul
  8411     0D32  01CB               	clrf	??___flmul+1
  8412     0D33  01CC               	clrf	??___flmul+2
  8413     0D34  01CD               	clrf	??___flmul+3
  8414     0D35  084D               	movf	??___flmul+3,w
  8415     0D36  00D3               	movwf	___flmul@grs+3
  8416     0D37  084C               	movf	??___flmul+2,w
  8417     0D38  00D2               	movwf	___flmul@grs+2
  8418     0D39  084B               	movf	??___flmul+1,w
  8419     0D3A  00D1               	movwf	___flmul@grs+1
  8420     0D3B  084A               	movf	??___flmul,w
  8421     0D3C  00D0               	movwf	___flmul@grs
  8422     0D3D                     l3174:
  8423     0D3D  085B               	movf	___flmul@temp+1,w
  8424     0D3E  00CA               	movwf	??___flmul
  8425     0D3F  01CB               	clrf	??___flmul+1
  8426     0D40  01CC               	clrf	??___flmul+2
  8427     0D41  01CD               	clrf	??___flmul+3
  8428     0D42  084D               	movf	??___flmul+3,w
  8429     0D43  00D9               	movwf	___flmul@prod+3
  8430     0D44  084C               	movf	??___flmul+2,w
  8431     0D45  00D8               	movwf	___flmul@prod+2
  8432     0D46  084B               	movf	??___flmul+1,w
  8433     0D47  00D7               	movwf	___flmul@prod+1
  8434     0D48  084A               	movf	??___flmul,w
  8435     0D49  00D6               	movwf	___flmul@prod
  8436     0D4A  0843               	movf	___flmul@b+1,w
  8437     0D4B  00F0               	movwf	__Umul8_16@multiplicand
  8438     0D4C  0847               	movf	___flmul@a+1,w
  8439     0D4D  120A  118A  2006  120A  158A  	fcall	__Umul8_16
  8440     0D52  0871               	movf	?__Umul8_16+1,w
  8441     0D53  1283               	bcf	3,5	;RP0=0, select bank0
  8442     0D54  1303               	bcf	3,6	;RP1=0, select bank0
  8443     0D55  00DB               	movwf	___flmul@temp+1
  8444     0D56  0870               	movf	?__Umul8_16,w
  8445     0D57  00DA               	movwf	___flmul@temp
  8446     0D58                     l3176:
  8447     0D58  085A               	movf	___flmul@temp,w
  8448     0D59  00CA               	movwf	??___flmul
  8449     0D5A  01CB               	clrf	??___flmul+1
  8450     0D5B  01CC               	clrf	??___flmul+2
  8451     0D5C  01CD               	clrf	??___flmul+3
  8452     0D5D  084A               	movf	??___flmul,w
  8453     0D5E  07D0               	addwf	___flmul@grs,f
  8454     0D5F  084B               	movf	??___flmul+1,w
  8455     0D60  1103               	clrz
  8456     0D61  1803               	skipnc
  8457     0D62  3E01               	addlw	1
  8458     0D63  1903               	skipnz
  8459     0D64  2D66               	goto	u3991
  8460     0D65  07D1               	addwf	___flmul@grs+1,f
  8461     0D66                     u3991:
  8462     0D66  084C               	movf	??___flmul+2,w
  8463     0D67  1103               	clrz
  8464     0D68  1803               	skipnc
  8465     0D69  3E01               	addlw	1
  8466     0D6A  1903               	skipnz
  8467     0D6B  2D6D               	goto	u3992
  8468     0D6C  07D2               	addwf	___flmul@grs+2,f
  8469     0D6D                     u3992:
  8470     0D6D  084D               	movf	??___flmul+3,w
  8471     0D6E  1103               	clrz
  8472     0D6F  1803               	skipnc
  8473     0D70  3E01               	addlw	1
  8474     0D71  1903               	skipnz
  8475     0D72  2D74               	goto	u3993
  8476     0D73  07D3               	addwf	___flmul@grs+3,f
  8477     0D74                     u3993:
  8478     0D74                     l3178:
  8479     0D74  085B               	movf	___flmul@temp+1,w
  8480     0D75  00CA               	movwf	??___flmul
  8481     0D76  01CB               	clrf	??___flmul+1
  8482     0D77  01CC               	clrf	??___flmul+2
  8483     0D78  01CD               	clrf	??___flmul+3
  8484     0D79  084A               	movf	??___flmul,w
  8485     0D7A  07D6               	addwf	___flmul@prod,f
  8486     0D7B  084B               	movf	??___flmul+1,w
  8487     0D7C  1103               	clrz
  8488     0D7D  1803               	skipnc
  8489     0D7E  3E01               	addlw	1
  8490     0D7F  1903               	skipnz
  8491     0D80  2D82               	goto	u4001
  8492     0D81  07D7               	addwf	___flmul@prod+1,f
  8493     0D82                     u4001:
  8494     0D82  084C               	movf	??___flmul+2,w
  8495     0D83  1103               	clrz
  8496     0D84  1803               	skipnc
  8497     0D85  3E01               	addlw	1
  8498     0D86  1903               	skipnz
  8499     0D87  2D89               	goto	u4002
  8500     0D88  07D8               	addwf	___flmul@prod+2,f
  8501     0D89                     u4002:
  8502     0D89  084D               	movf	??___flmul+3,w
  8503     0D8A  1103               	clrz
  8504     0D8B  1803               	skipnc
  8505     0D8C  3E01               	addlw	1
  8506     0D8D  1903               	skipnz
  8507     0D8E  2D90               	goto	u4003
  8508     0D8F  07D9               	addwf	___flmul@prod+3,f
  8509     0D90                     u4003:
  8510     0D90  0844               	movf	___flmul@b+2,w
  8511     0D91  00F0               	movwf	__Umul8_16@multiplicand
  8512     0D92  0846               	movf	___flmul@a,w
  8513     0D93  120A  118A  2006  120A  158A  	fcall	__Umul8_16
  8514     0D98  0871               	movf	?__Umul8_16+1,w
  8515     0D99  1283               	bcf	3,5	;RP0=0, select bank0
  8516     0D9A  1303               	bcf	3,6	;RP1=0, select bank0
  8517     0D9B  00DB               	movwf	___flmul@temp+1
  8518     0D9C  0870               	movf	?__Umul8_16,w
  8519     0D9D  00DA               	movwf	___flmul@temp
  8520     0D9E                     l3180:
  8521     0D9E  085A               	movf	___flmul@temp,w
  8522     0D9F  00CA               	movwf	??___flmul
  8523     0DA0  01CB               	clrf	??___flmul+1
  8524     0DA1  01CC               	clrf	??___flmul+2
  8525     0DA2  01CD               	clrf	??___flmul+3
  8526     0DA3  084A               	movf	??___flmul,w
  8527     0DA4  07D0               	addwf	___flmul@grs,f
  8528     0DA5  084B               	movf	??___flmul+1,w
  8529     0DA6  1103               	clrz
  8530     0DA7  1803               	skipnc
  8531     0DA8  3E01               	addlw	1
  8532     0DA9  1903               	skipnz
  8533     0DAA  2DAC               	goto	u4011
  8534     0DAB  07D1               	addwf	___flmul@grs+1,f
  8535     0DAC                     u4011:
  8536     0DAC  084C               	movf	??___flmul+2,w
  8537     0DAD  1103               	clrz
  8538     0DAE  1803               	skipnc
  8539     0DAF  3E01               	addlw	1
  8540     0DB0  1903               	skipnz
  8541     0DB1  2DB3               	goto	u4012
  8542     0DB2  07D2               	addwf	___flmul@grs+2,f
  8543     0DB3                     u4012:
  8544     0DB3  084D               	movf	??___flmul+3,w
  8545     0DB4  1103               	clrz
  8546     0DB5  1803               	skipnc
  8547     0DB6  3E01               	addlw	1
  8548     0DB7  1903               	skipnz
  8549     0DB8  2DBA               	goto	u4013
  8550     0DB9  07D3               	addwf	___flmul@grs+3,f
  8551     0DBA                     u4013:
  8552     0DBA                     l3182:
  8553     0DBA  085B               	movf	___flmul@temp+1,w
  8554     0DBB  00CA               	movwf	??___flmul
  8555     0DBC  01CB               	clrf	??___flmul+1
  8556     0DBD  01CC               	clrf	??___flmul+2
  8557     0DBE  01CD               	clrf	??___flmul+3
  8558     0DBF  084A               	movf	??___flmul,w
  8559     0DC0  07D6               	addwf	___flmul@prod,f
  8560     0DC1  084B               	movf	??___flmul+1,w
  8561     0DC2  1103               	clrz
  8562     0DC3  1803               	skipnc
  8563     0DC4  3E01               	addlw	1
  8564     0DC5  1903               	skipnz
  8565     0DC6  2DC8               	goto	u4021
  8566     0DC7  07D7               	addwf	___flmul@prod+1,f
  8567     0DC8                     u4021:
  8568     0DC8  084C               	movf	??___flmul+2,w
  8569     0DC9  1103               	clrz
  8570     0DCA  1803               	skipnc
  8571     0DCB  3E01               	addlw	1
  8572     0DCC  1903               	skipnz
  8573     0DCD  2DCF               	goto	u4022
  8574     0DCE  07D8               	addwf	___flmul@prod+2,f
  8575     0DCF                     u4022:
  8576     0DCF  084D               	movf	??___flmul+3,w
  8577     0DD0  1103               	clrz
  8578     0DD1  1803               	skipnc
  8579     0DD2  3E01               	addlw	1
  8580     0DD3  1903               	skipnz
  8581     0DD4  2DD6               	goto	u4023
  8582     0DD5  07D9               	addwf	___flmul@prod+3,f
  8583     0DD6                     u4023:
  8584     0DD6                     l3184:
  8585     0DD6  3008               	movlw	8
  8586     0DD7  00CA               	movwf	??___flmul
  8587     0DD8                     u4035:
  8588     0DD8  1003               	clrc
  8589     0DD9  0DD0               	rlf	___flmul@grs,f
  8590     0DDA  0DD1               	rlf	___flmul@grs+1,f
  8591     0DDB  0DD2               	rlf	___flmul@grs+2,f
  8592     0DDC  0DD3               	rlf	___flmul@grs+3,f
  8593     0DDD  0BCA               	decfsz	??___flmul,f
  8594     0DDE  2DD8               	goto	u4035
  8595     0DDF                     l3186:
  8596     0DDF  0843               	movf	___flmul@b+1,w
  8597     0DE0  00F0               	movwf	__Umul8_16@multiplicand
  8598     0DE1  0846               	movf	___flmul@a,w
  8599     0DE2  120A  118A  2006  120A  158A  	fcall	__Umul8_16
  8600     0DE7  0871               	movf	?__Umul8_16+1,w
  8601     0DE8  1283               	bcf	3,5	;RP0=0, select bank0
  8602     0DE9  1303               	bcf	3,6	;RP1=0, select bank0
  8603     0DEA  00DB               	movwf	___flmul@temp+1
  8604     0DEB  0870               	movf	?__Umul8_16,w
  8605     0DEC  00DA               	movwf	___flmul@temp
  8606     0DED                     l3188:
  8607     0DED  085A               	movf	___flmul@temp,w
  8608     0DEE  00CA               	movwf	??___flmul
  8609     0DEF  085B               	movf	___flmul@temp+1,w
  8610     0DF0  00CB               	movwf	??___flmul+1
  8611     0DF1  01CC               	clrf	??___flmul+2
  8612     0DF2  01CD               	clrf	??___flmul+3
  8613     0DF3  084A               	movf	??___flmul,w
  8614     0DF4  07D0               	addwf	___flmul@grs,f
  8615     0DF5  084B               	movf	??___flmul+1,w
  8616     0DF6  1103               	clrz
  8617     0DF7  1803               	skipnc
  8618     0DF8  3E01               	addlw	1
  8619     0DF9  1903               	skipnz
  8620     0DFA  2DFC               	goto	u4041
  8621     0DFB  07D1               	addwf	___flmul@grs+1,f
  8622     0DFC                     u4041:
  8623     0DFC  084C               	movf	??___flmul+2,w
  8624     0DFD  1103               	clrz
  8625     0DFE  1803               	skipnc
  8626     0DFF  3E01               	addlw	1
  8627     0E00  1903               	skipnz
  8628     0E01  2E03               	goto	u4042
  8629     0E02  07D2               	addwf	___flmul@grs+2,f
  8630     0E03                     u4042:
  8631     0E03  084D               	movf	??___flmul+3,w
  8632     0E04  1103               	clrz
  8633     0E05  1803               	skipnc
  8634     0E06  3E01               	addlw	1
  8635     0E07  1903               	skipnz
  8636     0E08  2E0A               	goto	u4043
  8637     0E09  07D3               	addwf	___flmul@grs+3,f
  8638     0E0A                     u4043:
  8639     0E0A                     l3190:
  8640     0E0A  0842               	movf	___flmul@b,w
  8641     0E0B  00F0               	movwf	__Umul8_16@multiplicand
  8642     0E0C  0847               	movf	___flmul@a+1,w
  8643     0E0D  120A  118A  2006  120A  158A  	fcall	__Umul8_16
  8644     0E12  0871               	movf	?__Umul8_16+1,w
  8645     0E13  1283               	bcf	3,5	;RP0=0, select bank0
  8646     0E14  1303               	bcf	3,6	;RP1=0, select bank0
  8647     0E15  00DB               	movwf	___flmul@temp+1
  8648     0E16  0870               	movf	?__Umul8_16,w
  8649     0E17  00DA               	movwf	___flmul@temp
  8650     0E18                     l3192:
  8651     0E18  085A               	movf	___flmul@temp,w
  8652     0E19  00CA               	movwf	??___flmul
  8653     0E1A  085B               	movf	___flmul@temp+1,w
  8654     0E1B  00CB               	movwf	??___flmul+1
  8655     0E1C  01CC               	clrf	??___flmul+2
  8656     0E1D  01CD               	clrf	??___flmul+3
  8657     0E1E  084A               	movf	??___flmul,w
  8658     0E1F  07D0               	addwf	___flmul@grs,f
  8659     0E20  084B               	movf	??___flmul+1,w
  8660     0E21  1103               	clrz
  8661     0E22  1803               	skipnc
  8662     0E23  3E01               	addlw	1
  8663     0E24  1903               	skipnz
  8664     0E25  2E27               	goto	u4051
  8665     0E26  07D1               	addwf	___flmul@grs+1,f
  8666     0E27                     u4051:
  8667     0E27  084C               	movf	??___flmul+2,w
  8668     0E28  1103               	clrz
  8669     0E29  1803               	skipnc
  8670     0E2A  3E01               	addlw	1
  8671     0E2B  1903               	skipnz
  8672     0E2C  2E2E               	goto	u4052
  8673     0E2D  07D2               	addwf	___flmul@grs+2,f
  8674     0E2E                     u4052:
  8675     0E2E  084D               	movf	??___flmul+3,w
  8676     0E2F  1103               	clrz
  8677     0E30  1803               	skipnc
  8678     0E31  3E01               	addlw	1
  8679     0E32  1903               	skipnz
  8680     0E33  2E35               	goto	u4053
  8681     0E34  07D3               	addwf	___flmul@grs+3,f
  8682     0E35                     u4053:
  8683     0E35                     l3194:
  8684     0E35  3008               	movlw	8
  8685     0E36  00CA               	movwf	??___flmul
  8686     0E37                     u4065:
  8687     0E37  1003               	clrc
  8688     0E38  0DD0               	rlf	___flmul@grs,f
  8689     0E39  0DD1               	rlf	___flmul@grs+1,f
  8690     0E3A  0DD2               	rlf	___flmul@grs+2,f
  8691     0E3B  0DD3               	rlf	___flmul@grs+3,f
  8692     0E3C  0BCA               	decfsz	??___flmul,f
  8693     0E3D  2E37               	goto	u4065
  8694     0E3E  0842               	movf	___flmul@b,w
  8695     0E3F  00F0               	movwf	__Umul8_16@multiplicand
  8696     0E40  0846               	movf	___flmul@a,w
  8697     0E41  120A  118A  2006  120A  158A  	fcall	__Umul8_16
  8698     0E46  0871               	movf	?__Umul8_16+1,w
  8699     0E47  1283               	bcf	3,5	;RP0=0, select bank0
  8700     0E48  1303               	bcf	3,6	;RP1=0, select bank0
  8701     0E49  00DB               	movwf	___flmul@temp+1
  8702     0E4A  0870               	movf	?__Umul8_16,w
  8703     0E4B  00DA               	movwf	___flmul@temp
  8704     0E4C                     l3196:
  8705     0E4C  085A               	movf	___flmul@temp,w
  8706     0E4D  00CA               	movwf	??___flmul
  8707     0E4E  085B               	movf	___flmul@temp+1,w
  8708     0E4F  00CB               	movwf	??___flmul+1
  8709     0E50  01CC               	clrf	??___flmul+2
  8710     0E51  01CD               	clrf	??___flmul+3
  8711     0E52  084A               	movf	??___flmul,w
  8712     0E53  07D0               	addwf	___flmul@grs,f
  8713     0E54  084B               	movf	??___flmul+1,w
  8714     0E55  1103               	clrz
  8715     0E56  1803               	skipnc
  8716     0E57  3E01               	addlw	1
  8717     0E58  1903               	skipnz
  8718     0E59  2E5B               	goto	u4071
  8719     0E5A  07D1               	addwf	___flmul@grs+1,f
  8720     0E5B                     u4071:
  8721     0E5B  084C               	movf	??___flmul+2,w
  8722     0E5C  1103               	clrz
  8723     0E5D  1803               	skipnc
  8724     0E5E  3E01               	addlw	1
  8725     0E5F  1903               	skipnz
  8726     0E60  2E62               	goto	u4072
  8727     0E61  07D2               	addwf	___flmul@grs+2,f
  8728     0E62                     u4072:
  8729     0E62  084D               	movf	??___flmul+3,w
  8730     0E63  1103               	clrz
  8731     0E64  1803               	skipnc
  8732     0E65  3E01               	addlw	1
  8733     0E66  1903               	skipnz
  8734     0E67  2E69               	goto	u4073
  8735     0E68  07D3               	addwf	___flmul@grs+3,f
  8736     0E69                     u4073:
  8737     0E69                     l3198:
  8738     0E69  0843               	movf	___flmul@b+1,w
  8739     0E6A  00F0               	movwf	__Umul8_16@multiplicand
  8740     0E6B  0848               	movf	___flmul@a+2,w
  8741     0E6C  120A  118A  2006  120A  158A  	fcall	__Umul8_16
  8742     0E71  0871               	movf	?__Umul8_16+1,w
  8743     0E72  1283               	bcf	3,5	;RP0=0, select bank0
  8744     0E73  1303               	bcf	3,6	;RP1=0, select bank0
  8745     0E74  00DB               	movwf	___flmul@temp+1
  8746     0E75  0870               	movf	?__Umul8_16,w
  8747     0E76  00DA               	movwf	___flmul@temp
  8748     0E77  085A               	movf	___flmul@temp,w
  8749     0E78  00CA               	movwf	??___flmul
  8750     0E79  085B               	movf	___flmul@temp+1,w
  8751     0E7A  00CB               	movwf	??___flmul+1
  8752     0E7B  01CC               	clrf	??___flmul+2
  8753     0E7C  01CD               	clrf	??___flmul+3
  8754     0E7D  084A               	movf	??___flmul,w
  8755     0E7E  07D6               	addwf	___flmul@prod,f
  8756     0E7F  084B               	movf	??___flmul+1,w
  8757     0E80  1103               	clrz
  8758     0E81  1803               	skipnc
  8759     0E82  3E01               	addlw	1
  8760     0E83  1903               	skipnz
  8761     0E84  2E86               	goto	u4081
  8762     0E85  07D7               	addwf	___flmul@prod+1,f
  8763     0E86                     u4081:
  8764     0E86  084C               	movf	??___flmul+2,w
  8765     0E87  1103               	clrz
  8766     0E88  1803               	skipnc
  8767     0E89  3E01               	addlw	1
  8768     0E8A  1903               	skipnz
  8769     0E8B  2E8D               	goto	u4082
  8770     0E8C  07D8               	addwf	___flmul@prod+2,f
  8771     0E8D                     u4082:
  8772     0E8D  084D               	movf	??___flmul+3,w
  8773     0E8E  1103               	clrz
  8774     0E8F  1803               	skipnc
  8775     0E90  3E01               	addlw	1
  8776     0E91  1903               	skipnz
  8777     0E92  2E94               	goto	u4083
  8778     0E93  07D9               	addwf	___flmul@prod+3,f
  8779     0E94                     u4083:
  8780     0E94                     l3200:
  8781     0E94  0844               	movf	___flmul@b+2,w
  8782     0E95  00F0               	movwf	__Umul8_16@multiplicand
  8783     0E96  0847               	movf	___flmul@a+1,w
  8784     0E97  120A  118A  2006  120A  158A  	fcall	__Umul8_16
  8785     0E9C  0871               	movf	?__Umul8_16+1,w
  8786     0E9D  1283               	bcf	3,5	;RP0=0, select bank0
  8787     0E9E  1303               	bcf	3,6	;RP1=0, select bank0
  8788     0E9F  00DB               	movwf	___flmul@temp+1
  8789     0EA0  0870               	movf	?__Umul8_16,w
  8790     0EA1  00DA               	movwf	___flmul@temp
  8791     0EA2                     l3202:
  8792     0EA2  085A               	movf	___flmul@temp,w
  8793     0EA3  00CA               	movwf	??___flmul
  8794     0EA4  085B               	movf	___flmul@temp+1,w
  8795     0EA5  00CB               	movwf	??___flmul+1
  8796     0EA6  01CC               	clrf	??___flmul+2
  8797     0EA7  01CD               	clrf	??___flmul+3
  8798     0EA8  084A               	movf	??___flmul,w
  8799     0EA9  07D6               	addwf	___flmul@prod,f
  8800     0EAA  084B               	movf	??___flmul+1,w
  8801     0EAB  1103               	clrz
  8802     0EAC  1803               	skipnc
  8803     0EAD  3E01               	addlw	1
  8804     0EAE  1903               	skipnz
  8805     0EAF  2EB1               	goto	u4091
  8806     0EB0  07D7               	addwf	___flmul@prod+1,f
  8807     0EB1                     u4091:
  8808     0EB1  084C               	movf	??___flmul+2,w
  8809     0EB2  1103               	clrz
  8810     0EB3  1803               	skipnc
  8811     0EB4  3E01               	addlw	1
  8812     0EB5  1903               	skipnz
  8813     0EB6  2EB8               	goto	u4092
  8814     0EB7  07D8               	addwf	___flmul@prod+2,f
  8815     0EB8                     u4092:
  8816     0EB8  084D               	movf	??___flmul+3,w
  8817     0EB9  1103               	clrz
  8818     0EBA  1803               	skipnc
  8819     0EBB  3E01               	addlw	1
  8820     0EBC  1903               	skipnz
  8821     0EBD  2EBF               	goto	u4093
  8822     0EBE  07D9               	addwf	___flmul@prod+3,f
  8823     0EBF                     u4093:
  8824     0EBF  0844               	movf	___flmul@b+2,w
  8825     0EC0  00F0               	movwf	__Umul8_16@multiplicand
  8826     0EC1  0848               	movf	___flmul@a+2,w
  8827     0EC2  120A  118A  2006  120A  158A  	fcall	__Umul8_16
  8828     0EC7  0871               	movf	?__Umul8_16+1,w
  8829     0EC8  1283               	bcf	3,5	;RP0=0, select bank0
  8830     0EC9  1303               	bcf	3,6	;RP1=0, select bank0
  8831     0ECA  00DB               	movwf	___flmul@temp+1
  8832     0ECB  0870               	movf	?__Umul8_16,w
  8833     0ECC  00DA               	movwf	___flmul@temp
  8834     0ECD                     l3204:
  8835     0ECD  085A               	movf	___flmul@temp,w
  8836     0ECE  00CA               	movwf	??___flmul
  8837     0ECF  085B               	movf	___flmul@temp+1,w
  8838     0ED0  00CB               	movwf	??___flmul+1
  8839     0ED1  01CC               	clrf	??___flmul+2
  8840     0ED2  01CD               	clrf	??___flmul+3
  8841     0ED3  3008               	movlw	8
  8842     0ED4                     u4105:
  8843     0ED4  1003               	clrc
  8844     0ED5  0DCA               	rlf	??___flmul,f
  8845     0ED6  0DCB               	rlf	??___flmul+1,f
  8846     0ED7  0DCC               	rlf	??___flmul+2,f
  8847     0ED8  0DCD               	rlf	??___flmul+3,f
  8848     0ED9                     u4100:
  8849     0ED9  3EFF               	addlw	-1
  8850     0EDA  1D03               	skipz
  8851     0EDB  2ED4               	goto	u4105
  8852     0EDC  084A               	movf	??___flmul,w
  8853     0EDD  07D6               	addwf	___flmul@prod,f
  8854     0EDE  084B               	movf	??___flmul+1,w
  8855     0EDF  1103               	clrz
  8856     0EE0  1803               	skipnc
  8857     0EE1  3E01               	addlw	1
  8858     0EE2  1903               	skipnz
  8859     0EE3  2EE5               	goto	u4111
  8860     0EE4  07D7               	addwf	___flmul@prod+1,f
  8861     0EE5                     u4111:
  8862     0EE5  084C               	movf	??___flmul+2,w
  8863     0EE6  1103               	clrz
  8864     0EE7  1803               	skipnc
  8865     0EE8  3E01               	addlw	1
  8866     0EE9  1903               	skipnz
  8867     0EEA  2EEC               	goto	u4112
  8868     0EEB  07D8               	addwf	___flmul@prod+2,f
  8869     0EEC                     u4112:
  8870     0EEC  084D               	movf	??___flmul+3,w
  8871     0EED  1103               	clrz
  8872     0EEE  1803               	skipnc
  8873     0EEF  3E01               	addlw	1
  8874     0EF0  1903               	skipnz
  8875     0EF1  2EF3               	goto	u4113
  8876     0EF2  07D9               	addwf	___flmul@prod+3,f
  8877     0EF3                     u4113:
  8878     0EF3                     l3206:
  8879     0EF3  0850               	movf	___flmul@grs,w
  8880     0EF4  00CA               	movwf	??___flmul
  8881     0EF5  0851               	movf	___flmul@grs+1,w
  8882     0EF6  00CB               	movwf	??___flmul+1
  8883     0EF7  0852               	movf	___flmul@grs+2,w
  8884     0EF8  00CC               	movwf	??___flmul+2
  8885     0EF9  0853               	movf	___flmul@grs+3,w
  8886     0EFA  00CD               	movwf	??___flmul+3
  8887     0EFB  3018               	movlw	24
  8888     0EFC                     u4125:
  8889     0EFC  1003               	clrc
  8890     0EFD  0CCD               	rrf	??___flmul+3,f
  8891     0EFE  0CCC               	rrf	??___flmul+2,f
  8892     0EFF  0CCB               	rrf	??___flmul+1,f
  8893     0F00  0CCA               	rrf	??___flmul,f
  8894     0F01                     u4120:
  8895     0F01  3EFF               	addlw	-1
  8896     0F02  1D03               	skipz
  8897     0F03  2EFC               	goto	u4125
  8898     0F04  084A               	movf	??___flmul,w
  8899     0F05  07D6               	addwf	___flmul@prod,f
  8900     0F06  084B               	movf	??___flmul+1,w
  8901     0F07  1103               	clrz
  8902     0F08  1803               	skipnc
  8903     0F09  3E01               	addlw	1
  8904     0F0A  1903               	skipnz
  8905     0F0B  2F0D               	goto	u4131
  8906     0F0C  07D7               	addwf	___flmul@prod+1,f
  8907     0F0D                     u4131:
  8908     0F0D  084C               	movf	??___flmul+2,w
  8909     0F0E  1103               	clrz
  8910     0F0F  1803               	skipnc
  8911     0F10  3E01               	addlw	1
  8912     0F11  1903               	skipnz
  8913     0F12  2F14               	goto	u4132
  8914     0F13  07D8               	addwf	___flmul@prod+2,f
  8915     0F14                     u4132:
  8916     0F14  084D               	movf	??___flmul+3,w
  8917     0F15  1103               	clrz
  8918     0F16  1803               	skipnc
  8919     0F17  3E01               	addlw	1
  8920     0F18  1903               	skipnz
  8921     0F19  2F1B               	goto	u4133
  8922     0F1A  07D9               	addwf	___flmul@prod+3,f
  8923     0F1B                     u4133:
  8924     0F1B                     l3208:
  8925     0F1B  3008               	movlw	8
  8926     0F1C  00CA               	movwf	??___flmul
  8927     0F1D                     u4145:
  8928     0F1D  1003               	clrc
  8929     0F1E  0DD0               	rlf	___flmul@grs,f
  8930     0F1F  0DD1               	rlf	___flmul@grs+1,f
  8931     0F20  0DD2               	rlf	___flmul@grs+2,f
  8932     0F21  0DD3               	rlf	___flmul@grs+3,f
  8933     0F22  0BCA               	decfsz	??___flmul,f
  8934     0F23  2F1D               	goto	u4145
  8935     0F24                     l3210:
  8936     0F24  0855               	movf	___flmul@bexp,w
  8937     0F25  0754               	addwf	___flmul@aexp,w
  8938     0F26  00CA               	movwf	??___flmul
  8939     0F27  01CB               	clrf	??___flmul+1
  8940     0F28  0DCB               	rlf	??___flmul+1,f
  8941     0F29  084A               	movf	??___flmul,w
  8942     0F2A  3E82               	addlw	130
  8943     0F2B  00DA               	movwf	___flmul@temp
  8944     0F2C  084B               	movf	??___flmul+1,w
  8945     0F2D  1803               	skipnc
  8946     0F2E  3E01               	addlw	1
  8947     0F2F  3EFF               	addlw	255
  8948     0F30  00DB               	movwf	___flmul@temp+1
  8949     0F31  2F4F               	goto	l3222
  8950     0F32                     l3212:
  8951     0F32  3001               	movlw	1
  8952     0F33  00CA               	movwf	??___flmul
  8953     0F34                     u4155:
  8954     0F34  1003               	clrc
  8955     0F35  0DD6               	rlf	___flmul@prod,f
  8956     0F36  0DD7               	rlf	___flmul@prod+1,f
  8957     0F37  0DD8               	rlf	___flmul@prod+2,f
  8958     0F38  0DD9               	rlf	___flmul@prod+3,f
  8959     0F39  0BCA               	decfsz	??___flmul,f
  8960     0F3A  2F34               	goto	u4155
  8961     0F3B                     l3214:
  8962     0F3B  1FD3               	btfss	___flmul@grs+3,7
  8963     0F3C  2F3E               	goto	u4161
  8964     0F3D  2F3F               	goto	u4160
  8965     0F3E                     u4161:
  8966     0F3E  2F40               	goto	l3218
  8967     0F3F                     u4160:
  8968     0F3F                     l3216:
  8969     0F3F  1456               	bsf	___flmul@prod,0
  8970     0F40                     l3218:
  8971     0F40  3001               	movlw	1
  8972     0F41  00CA               	movwf	??___flmul
  8973     0F42                     u4175:
  8974     0F42  1003               	clrc
  8975     0F43  0DD0               	rlf	___flmul@grs,f
  8976     0F44  0DD1               	rlf	___flmul@grs+1,f
  8977     0F45  0DD2               	rlf	___flmul@grs+2,f
  8978     0F46  0DD3               	rlf	___flmul@grs+3,f
  8979     0F47  0BCA               	decfsz	??___flmul,f
  8980     0F48  2F42               	goto	u4175
  8981     0F49                     l3220:
  8982     0F49  30FF               	movlw	255
  8983     0F4A  07DA               	addwf	___flmul@temp,f
  8984     0F4B  1803               	skipnc
  8985     0F4C  0ADB               	incf	___flmul@temp+1,f
  8986     0F4D  30FF               	movlw	255
  8987     0F4E  07DB               	addwf	___flmul@temp+1,f
  8988     0F4F                     l3222:
  8989     0F4F  1FD8               	btfss	___flmul@prod+2,7
  8990     0F50  2F52               	goto	u4181
  8991     0F51  2F53               	goto	u4180
  8992     0F52                     u4181:
  8993     0F52  2F32               	goto	l3212
  8994     0F53                     u4180:
  8995     0F53                     l3224:
  8996     0F53  01D4               	clrf	___flmul@aexp
  8997     0F54                     l3226:
  8998     0F54  1FD3               	btfss	___flmul@grs+3,7
  8999     0F55  2F57               	goto	u4191
  9000     0F56  2F58               	goto	u4190
  9001     0F57                     u4191:
  9002     0F57  2F74               	goto	l3234
  9003     0F58                     u4190:
  9004     0F58                     l3228:
  9005     0F58  30FF               	movlw	255
  9006     0F59  0550               	andwf	___flmul@grs,w
  9007     0F5A  00CA               	movwf	??___flmul
  9008     0F5B  30FF               	movlw	255
  9009     0F5C  0551               	andwf	___flmul@grs+1,w
  9010     0F5D  00CB               	movwf	??___flmul+1
  9011     0F5E  30FF               	movlw	255
  9012     0F5F  0552               	andwf	___flmul@grs+2,w
  9013     0F60  00CC               	movwf	??___flmul+2
  9014     0F61  307F               	movlw	127
  9015     0F62  0553               	andwf	___flmul@grs+3,w
  9016     0F63  00CD               	movwf	??___flmul+3
  9017     0F64  084D               	movf	??___flmul+3,w
  9018     0F65  044C               	iorwf	??___flmul+2,w
  9019     0F66  044B               	iorwf	??___flmul+1,w
  9020     0F67  044A               	iorwf	??___flmul,w
  9021     0F68  1903               	skipnz
  9022     0F69  2F6B               	goto	u4201
  9023     0F6A  2F6C               	goto	u4200
  9024     0F6B                     u4201:
  9025     0F6B  2F6F               	goto	l895
  9026     0F6C                     u4200:
  9027     0F6C                     l3230:
  9028     0F6C  01D4               	clrf	___flmul@aexp
  9029     0F6D  0AD4               	incf	___flmul@aexp,f
  9030     0F6E  2F74               	goto	l3234
  9031     0F6F                     l895:
  9032     0F6F  1C56               	btfss	___flmul@prod,0
  9033     0F70  2F72               	goto	u4211
  9034     0F71  2F73               	goto	u4210
  9035     0F72                     u4211:
  9036     0F72  2F74               	goto	l3234
  9037     0F73                     u4210:
  9038     0F73  2F6C               	goto	l3230
  9039     0F74                     l3234:
  9040     0F74  0854               	movf	___flmul@aexp,w
  9041     0F75  1903               	btfsc	3,2
  9042     0F76  2F78               	goto	u4221
  9043     0F77  2F79               	goto	u4220
  9044     0F78                     u4221:
  9045     0F78  2FAA               	goto	l3244
  9046     0F79                     u4220:
  9047     0F79                     l3236:
  9048     0F79  3001               	movlw	1
  9049     0F7A  07D6               	addwf	___flmul@prod,f
  9050     0F7B  3000               	movlw	0
  9051     0F7C  1803               	skipnc
  9052     0F7D  3001               	movlw	1
  9053     0F7E  07D7               	addwf	___flmul@prod+1,f
  9054     0F7F  3000               	movlw	0
  9055     0F80  1803               	skipnc
  9056     0F81  3001               	movlw	1
  9057     0F82  07D8               	addwf	___flmul@prod+2,f
  9058     0F83  3000               	movlw	0
  9059     0F84  1803               	skipnc
  9060     0F85  3001               	movlw	1
  9061     0F86  07D9               	addwf	___flmul@prod+3,f
  9062     0F87                     l3238:
  9063     0F87  1C59               	btfss	___flmul@prod+3,0
  9064     0F88  2F8A               	goto	u4231
  9065     0F89  2F8B               	goto	u4230
  9066     0F8A                     u4231:
  9067     0F8A  2FAA               	goto	l3244
  9068     0F8B                     u4230:
  9069     0F8B                     l3240:
  9070     0F8B  0856               	movf	___flmul@prod,w
  9071     0F8C  00CA               	movwf	??___flmul
  9072     0F8D  0857               	movf	___flmul@prod+1,w
  9073     0F8E  00CB               	movwf	??___flmul+1
  9074     0F8F  0858               	movf	___flmul@prod+2,w
  9075     0F90  00CC               	movwf	??___flmul+2
  9076     0F91  0859               	movf	___flmul@prod+3,w
  9077     0F92  00CD               	movwf	??___flmul+3
  9078     0F93  3001               	movlw	1
  9079     0F94  00CE               	movwf	??___flmul+4
  9080     0F95                     u4245:
  9081     0F95  0D4D               	rlf	??___flmul+3,w
  9082     0F96  0CCD               	rrf	??___flmul+3,f
  9083     0F97  0CCC               	rrf	??___flmul+2,f
  9084     0F98  0CCB               	rrf	??___flmul+1,f
  9085     0F99  0CCA               	rrf	??___flmul,f
  9086     0F9A                     u4240:
  9087     0F9A  0BCE               	decfsz	??___flmul+4,f
  9088     0F9B  2F95               	goto	u4245
  9089     0F9C  084D               	movf	??___flmul+3,w
  9090     0F9D  00D9               	movwf	___flmul@prod+3
  9091     0F9E  084C               	movf	??___flmul+2,w
  9092     0F9F  00D8               	movwf	___flmul@prod+2
  9093     0FA0  084B               	movf	??___flmul+1,w
  9094     0FA1  00D7               	movwf	___flmul@prod+1
  9095     0FA2  084A               	movf	??___flmul,w
  9096     0FA3  00D6               	movwf	___flmul@prod
  9097     0FA4                     l3242:
  9098     0FA4  3001               	movlw	1
  9099     0FA5  07DA               	addwf	___flmul@temp,f
  9100     0FA6  1803               	skipnc
  9101     0FA7  0ADB               	incf	___flmul@temp+1,f
  9102     0FA8  3000               	movlw	0
  9103     0FA9  07DB               	addwf	___flmul@temp+1,f
  9104     0FAA                     l3244:
  9105     0FAA  085B               	movf	___flmul@temp+1,w
  9106     0FAB  3A80               	xorlw	128
  9107     0FAC  00FF               	movwf	btemp+1
  9108     0FAD  3080               	movlw	128
  9109     0FAE  027F               	subwf	btemp+1,w
  9110     0FAF  1D03               	skipz
  9111     0FB0  2FB3               	goto	u4255
  9112     0FB1  30FF               	movlw	255
  9113     0FB2  025A               	subwf	___flmul@temp,w
  9114     0FB3                     u4255:
  9115     0FB3  1C03               	skipc
  9116     0FB4  2FB6               	goto	u4251
  9117     0FB5  2FB7               	goto	u4250
  9118     0FB6                     u4251:
  9119     0FB6  2FC2               	goto	l3248
  9120     0FB7                     u4250:
  9121     0FB7                     l3246:
  9122     0FB7  307F               	movlw	127
  9123     0FB8  1283               	bcf	3,5	;RP0=0, select bank0
  9124     0FB9  1303               	bcf	3,6	;RP1=0, select bank0
  9125     0FBA  00D9               	movwf	___flmul@prod+3
  9126     0FBB  3080               	movlw	128
  9127     0FBC  00D8               	movwf	___flmul@prod+2
  9128     0FBD  3000               	movlw	0
  9129     0FBE  00D7               	movwf	___flmul@prod+1
  9130     0FBF  3000               	movlw	0
  9131     0FC0  00D6               	movwf	___flmul@prod
  9132     0FC1  2FF3               	goto	l3262
  9133     0FC2                     l3248:
  9134     0FC2  1283               	bcf	3,5	;RP0=0, select bank0
  9135     0FC3  1303               	bcf	3,6	;RP1=0, select bank0
  9136     0FC4  085B               	movf	___flmul@temp+1,w
  9137     0FC5  3A80               	xorlw	128
  9138     0FC6  00FF               	movwf	btemp+1
  9139     0FC7  3080               	movlw	128
  9140     0FC8  027F               	subwf	btemp+1,w
  9141     0FC9  1D03               	skipz
  9142     0FCA  2FCD               	goto	u4265
  9143     0FCB  3001               	movlw	1
  9144     0FCC  025A               	subwf	___flmul@temp,w
  9145     0FCD                     u4265:
  9146     0FCD  1803               	skipnc
  9147     0FCE  2FD0               	goto	u4261
  9148     0FCF  2FD1               	goto	u4260
  9149     0FD0                     u4261:
  9150     0FD0  2FDD               	goto	l3254
  9151     0FD1                     u4260:
  9152     0FD1                     l3250:
  9153     0FD1  3000               	movlw	0
  9154     0FD2  1283               	bcf	3,5	;RP0=0, select bank0
  9155     0FD3  1303               	bcf	3,6	;RP1=0, select bank0
  9156     0FD4  00D9               	movwf	___flmul@prod+3
  9157     0FD5  3000               	movlw	0
  9158     0FD6  00D8               	movwf	___flmul@prod+2
  9159     0FD7  3000               	movlw	0
  9160     0FD8  00D7               	movwf	___flmul@prod+1
  9161     0FD9  3000               	movlw	0
  9162     0FDA  00D6               	movwf	___flmul@prod
  9163     0FDB                     l3252:
  9164     0FDB  01CF               	clrf	___flmul@sign
  9165     0FDC  2FF3               	goto	l3262
  9166     0FDD                     l3254:
  9167     0FDD  1283               	bcf	3,5	;RP0=0, select bank0
  9168     0FDE  1303               	bcf	3,6	;RP1=0, select bank0
  9169     0FDF  085A               	movf	___flmul@temp,w
  9170     0FE0  00D5               	movwf	___flmul@bexp
  9171     0FE1  30FF               	movlw	255
  9172     0FE2  05D6               	andwf	___flmul@prod,f
  9173     0FE3  30FF               	movlw	255
  9174     0FE4  05D7               	andwf	___flmul@prod+1,f
  9175     0FE5  307F               	movlw	127
  9176     0FE6  05D8               	andwf	___flmul@prod+2,f
  9177     0FE7  3000               	movlw	0
  9178     0FE8  05D9               	andwf	___flmul@prod+3,f
  9179     0FE9                     l3256:
  9180     0FE9  1C55               	btfss	___flmul@bexp,0
  9181     0FEA  2FEC               	goto	u4271
  9182     0FEB  2FED               	goto	u4270
  9183     0FEC                     u4271:
  9184     0FEC  2FEE               	goto	l3260
  9185     0FED                     u4270:
  9186     0FED                     l3258:
  9187     0FED  17D8               	bsf	___flmul@prod+2,7
  9188     0FEE                     l3260:
  9189     0FEE  0855               	movf	___flmul@bexp,w
  9190     0FEF  00CA               	movwf	??___flmul
  9191     0FF0  1003               	clrc
  9192     0FF1  0C4A               	rrf	??___flmul,w
  9193     0FF2  00D9               	movwf	___flmul@prod+3
  9194     0FF3                     l3262:
  9195     0FF3  084F               	movf	___flmul@sign,w
  9196     0FF4  00FF               	movwf	btemp+1
  9197     0FF5  087F               	movf	btemp+1,w
  9198     0FF6  04D9               	iorwf	___flmul@prod+3,f
  9199     0FF7                     l3264:
  9200     0FF7  0859               	movf	___flmul@prod+3,w
  9201     0FF8  00C5               	movwf	?___flmul+3
  9202     0FF9  0858               	movf	___flmul@prod+2,w
  9203     0FFA  00C4               	movwf	?___flmul+2
  9204     0FFB  0857               	movf	___flmul@prod+1,w
  9205     0FFC  00C3               	movwf	?___flmul+1
  9206     0FFD  0856               	movf	___flmul@prod,w
  9207     0FFE  00C2               	movwf	?___flmul
  9208     0FFF                     l889:
  9209     0FFF  0008               	return
  9210     1000                     __end_of___flmul:
  9211                           
  9212                           	psect	text36
  9213     0006                     __ptext36:	
  9214 ;; *************** function __Umul8_16 *****************
  9215 ;; Defined at:
  9216 ;;		line 4 in file "E:\XC8 Compiler\pic\sources\c90\common\Umul8_16.c"
  9217 ;; Parameters:    Size  Location     Type
  9218 ;;  multiplier      1    wreg     unsigned char 
  9219 ;;  multiplicand    1    0[COMMON] unsigned char 
  9220 ;; Auto vars:     Size  Location     Type
  9221 ;;  multiplier      1    8[COMMON] unsigned char 
  9222 ;;  word_mpld       2    6[COMMON] unsigned int 
  9223 ;;  product         2    4[COMMON] unsigned int 
  9224 ;; Return value:  Size  Location     Type
  9225 ;;                  2    0[COMMON] unsigned int 
  9226 ;; Registers used:
  9227 ;;		wreg, status,2, status,0
  9228 ;; Tracked objects:
  9229 ;;		On entry : 0/0
  9230 ;;		On exit  : 0/0
  9231 ;;		Unchanged: 0/0
  9232 ;; Data sizes:     COMMON   BANK0   BANK1   BANK3   BANK2
  9233 ;;      Params:         2       0       0       0       0
  9234 ;;      Locals:         5       0       0       0       0
  9235 ;;      Temps:          2       0       0       0       0
  9236 ;;      Totals:         9       0       0       0       0
  9237 ;;Total ram usage:        9 bytes
  9238 ;; Hardware stack levels used: 1
  9239 ;; This function calls:
  9240 ;;		Nothing
  9241 ;; This function is called by:
  9242 ;;		___flmul
  9243 ;; This function uses a non-reentrant model
  9244 ;;
  9245                           
  9246     0006                     __Umul8_16:	
  9247                           ;psect for function __Umul8_16
  9248                           
  9249                           
  9250                           ;incstack = 0
  9251                           ; Regs used in __Umul8_16: [wreg+status,2+status,0]
  9252                           ;__Umul8_16@multiplier stored from wreg
  9253     0006  00F8               	movwf	__Umul8_16@multiplier
  9254     0007                     l2780:
  9255     0007  01F4               	clrf	__Umul8_16@product
  9256     0008  01F5               	clrf	__Umul8_16@product+1
  9257     0009                     l2782:
  9258     0009  0870               	movf	__Umul8_16@multiplicand,w
  9259     000A  00F2               	movwf	??__Umul8_16
  9260     000B  01F3               	clrf	??__Umul8_16+1
  9261     000C  0872               	movf	??__Umul8_16,w
  9262     000D  00F6               	movwf	__Umul8_16@word_mpld
  9263     000E  0873               	movf	??__Umul8_16+1,w
  9264     000F  00F7               	movwf	__Umul8_16@word_mpld+1
  9265     0010                     l2784:
  9266     0010  1C78               	btfss	__Umul8_16@multiplier,0
  9267     0011  2813               	goto	u3171
  9268     0012  2814               	goto	u3170
  9269     0013                     u3171:
  9270     0013  281A               	goto	l908
  9271     0014                     u3170:
  9272     0014                     l2786:
  9273     0014  0876               	movf	__Umul8_16@word_mpld,w
  9274     0015  07F4               	addwf	__Umul8_16@product,f
  9275     0016  1803               	skipnc
  9276     0017  0AF5               	incf	__Umul8_16@product+1,f
  9277     0018  0877               	movf	__Umul8_16@word_mpld+1,w
  9278     0019  07F5               	addwf	__Umul8_16@product+1,f
  9279     001A                     l908:
  9280     001A  3001               	movlw	1
  9281     001B                     u3185:
  9282     001B  1003               	clrc
  9283     001C  0DF6               	rlf	__Umul8_16@word_mpld,f
  9284     001D  0DF7               	rlf	__Umul8_16@word_mpld+1,f
  9285     001E  3EFF               	addlw	-1
  9286     001F  1D03               	skipz
  9287     0020  281B               	goto	u3185
  9288     0021  1003               	clrc
  9289     0022  0CF8               	rrf	__Umul8_16@multiplier,f
  9290     0023                     l2788:
  9291     0023  0878               	movf	__Umul8_16@multiplier,w
  9292     0024  1D03               	btfss	3,2
  9293     0025  2827               	goto	u3191
  9294     0026  2828               	goto	u3190
  9295     0027                     u3191:
  9296     0027  2810               	goto	l2784
  9297     0028                     u3190:
  9298     0028                     l2790:
  9299     0028  0875               	movf	__Umul8_16@product+1,w
  9300     0029  00F1               	movwf	?__Umul8_16+1
  9301     002A  0874               	movf	__Umul8_16@product,w
  9302     002B  00F0               	movwf	?__Umul8_16
  9303     002C                     l910:
  9304     002C  0008               	return
  9305     002D                     __end_of__Umul8_16:
  9306                           
  9307                           	psect	text37
  9308     002D                     __ptext37:	
  9309 ;; *************** function ___fldiv *****************
  9310 ;; Defined at:
  9311 ;;		line 8 in file "E:\XC8 Compiler\pic\sources\c90\common\sprcdiv.c"
  9312 ;; Parameters:    Size  Location     Type
  9313 ;;  a               4    8[BANK0 ] unsigned int 
  9314 ;;  b               4   12[BANK0 ] unsigned int 
  9315 ;; Auto vars:     Size  Location     Type
  9316 ;;  grs             4   28[BANK0 ] unsigned long 
  9317 ;;  rem             4   21[BANK0 ] unsigned long 
  9318 ;;  new_exp         2   26[BANK0 ] int 
  9319 ;;  aexp            1   33[BANK0 ] unsigned char 
  9320 ;;  bexp            1   32[BANK0 ] unsigned char 
  9321 ;;  sign            1   25[BANK0 ] unsigned char 
  9322 ;; Return value:  Size  Location     Type
  9323 ;;                  4    8[BANK0 ] unsigned char 
  9324 ;; Registers used:
  9325 ;;		wreg, status,2, status,0, btemp+1
  9326 ;; Tracked objects:
  9327 ;;		On entry : 0/0
  9328 ;;		On exit  : 0/0
  9329 ;;		Unchanged: 0/0
  9330 ;; Data sizes:     COMMON   BANK0   BANK1   BANK3   BANK2
  9331 ;;      Params:         0       8       0       0       0
  9332 ;;      Locals:         0      13       0       0       0
  9333 ;;      Temps:          0       5       0       0       0
  9334 ;;      Totals:         0      26       0       0       0
  9335 ;;Total ram usage:       26 bytes
  9336 ;; Hardware stack levels used: 1
  9337 ;; This function calls:
  9338 ;;		Nothing
  9339 ;; This function is called by:
  9340 ;;		_LM35_readData
  9341 ;;		_HIH5030_readData
  9342 ;; This function uses a non-reentrant model
  9343 ;;
  9344                           
  9345     002D                     ___fldiv:	
  9346                           ;psect for function ___fldiv
  9347                           
  9348     002D                     l2980:	
  9349                           ;incstack = 0
  9350                           ; Regs used in ___fldiv: [wreg+status,2+status,0+btemp+1]
  9351                           
  9352     002D  1283               	bcf	3,5	;RP0=0, select bank0
  9353     002E  1303               	bcf	3,6	;RP1=0, select bank0
  9354     002F  082F               	movf	___fldiv@b+3,w
  9355     0030  3980               	andlw	128
  9356     0031  00B9               	movwf	___fldiv@sign
  9357     0032                     l2982:
  9358     0032  082F               	movf	___fldiv@b+3,w
  9359     0033  00B0               	movwf	??___fldiv
  9360     0034  0730               	addwf	??___fldiv,w
  9361     0035  00C0               	movwf	___fldiv@bexp
  9362     0036                     l2984:
  9363     0036  1FAE               	btfss	___fldiv@b+2,7
  9364     0037  2839               	goto	u3621
  9365     0038  283A               	goto	u3620
  9366     0039                     u3621:
  9367     0039  283B               	goto	l2988
  9368     003A                     u3620:
  9369     003A                     l2986:
  9370     003A  1440               	bsf	___fldiv@bexp,0
  9371     003B                     l2988:
  9372     003B  0840               	movf	___fldiv@bexp,w
  9373     003C  1903               	btfsc	3,2
  9374     003D  283F               	goto	u3631
  9375     003E  2840               	goto	u3630
  9376     003F                     u3631:
  9377     003F  2850               	goto	l2998
  9378     0040                     u3630:
  9379     0040                     l2990:
  9380     0040  0A40               	incf	___fldiv@bexp,w
  9381     0041  1D03               	btfss	3,2
  9382     0042  2844               	goto	u3641
  9383     0043  2845               	goto	u3640
  9384     0044                     u3641:
  9385     0044  284D               	goto	l2994
  9386     0045                     u3640:
  9387     0045                     l2992:
  9388     0045  3000               	movlw	0
  9389     0046  00AF               	movwf	___fldiv@b+3
  9390     0047  3000               	movlw	0
  9391     0048  00AE               	movwf	___fldiv@b+2
  9392     0049  3000               	movlw	0
  9393     004A  00AD               	movwf	___fldiv@b+1
  9394     004B  3000               	movlw	0
  9395     004C  00AC               	movwf	___fldiv@b
  9396     004D                     l2994:
  9397     004D  17AE               	bsf	___fldiv@b+2,7
  9398     004E                     l2996:
  9399     004E  01AF               	clrf	___fldiv@b+3
  9400     004F  2858               	goto	l3000
  9401     0050                     l2998:
  9402     0050  3000               	movlw	0
  9403     0051  00AF               	movwf	___fldiv@b+3
  9404     0052  3000               	movlw	0
  9405     0053  00AE               	movwf	___fldiv@b+2
  9406     0054  3000               	movlw	0
  9407     0055  00AD               	movwf	___fldiv@b+1
  9408     0056  3000               	movlw	0
  9409     0057  00AC               	movwf	___fldiv@b
  9410     0058                     l3000:
  9411     0058  082B               	movf	___fldiv@a+3,w
  9412     0059  3980               	andlw	128
  9413     005A  00FF               	movwf	btemp+1
  9414     005B  087F               	movf	btemp+1,w
  9415     005C  06B9               	xorwf	___fldiv@sign,f
  9416     005D                     l3002:
  9417     005D  082B               	movf	___fldiv@a+3,w
  9418     005E  00B0               	movwf	??___fldiv
  9419     005F  0730               	addwf	??___fldiv,w
  9420     0060  00C1               	movwf	___fldiv@aexp
  9421     0061                     l3004:
  9422     0061  1FAA               	btfss	___fldiv@a+2,7
  9423     0062  2864               	goto	u3651
  9424     0063  2865               	goto	u3650
  9425     0064                     u3651:
  9426     0064  2866               	goto	l3008
  9427     0065                     u3650:
  9428     0065                     l3006:
  9429     0065  1441               	bsf	___fldiv@aexp,0
  9430     0066                     l3008:
  9431     0066  0841               	movf	___fldiv@aexp,w
  9432     0067  1903               	btfsc	3,2
  9433     0068  286A               	goto	u3661
  9434     0069  286B               	goto	u3660
  9435     006A                     u3661:
  9436     006A  287B               	goto	l3018
  9437     006B                     u3660:
  9438     006B                     l3010:
  9439     006B  0A41               	incf	___fldiv@aexp,w
  9440     006C  1D03               	btfss	3,2
  9441     006D  286F               	goto	u3671
  9442     006E  2870               	goto	u3670
  9443     006F                     u3671:
  9444     006F  2878               	goto	l3014
  9445     0070                     u3670:
  9446     0070                     l3012:
  9447     0070  3000               	movlw	0
  9448     0071  00AB               	movwf	___fldiv@a+3
  9449     0072  3000               	movlw	0
  9450     0073  00AA               	movwf	___fldiv@a+2
  9451     0074  3000               	movlw	0
  9452     0075  00A9               	movwf	___fldiv@a+1
  9453     0076  3000               	movlw	0
  9454     0077  00A8               	movwf	___fldiv@a
  9455     0078                     l3014:
  9456     0078  17AA               	bsf	___fldiv@a+2,7
  9457     0079                     l3016:
  9458     0079  01AB               	clrf	___fldiv@a+3
  9459     007A  2883               	goto	l849
  9460     007B                     l3018:
  9461     007B  3000               	movlw	0
  9462     007C  00AB               	movwf	___fldiv@a+3
  9463     007D  3000               	movlw	0
  9464     007E  00AA               	movwf	___fldiv@a+2
  9465     007F  3000               	movlw	0
  9466     0080  00A9               	movwf	___fldiv@a+1
  9467     0081  3000               	movlw	0
  9468     0082  00A8               	movwf	___fldiv@a
  9469     0083                     l849:
  9470     0083  082B               	movf	___fldiv@a+3,w
  9471     0084  042A               	iorwf	___fldiv@a+2,w
  9472     0085  0429               	iorwf	___fldiv@a+1,w
  9473     0086  0428               	iorwf	___fldiv@a,w
  9474     0087  1D03               	skipz
  9475     0088  288A               	goto	u3681
  9476     0089  288B               	goto	u3680
  9477     008A                     u3681:
  9478     008A  28A4               	goto	l3028
  9479     008B                     u3680:
  9480     008B                     l3020:
  9481     008B  3000               	movlw	0
  9482     008C  00AF               	movwf	___fldiv@b+3
  9483     008D  3000               	movlw	0
  9484     008E  00AE               	movwf	___fldiv@b+2
  9485     008F  3000               	movlw	0
  9486     0090  00AD               	movwf	___fldiv@b+1
  9487     0091  3000               	movlw	0
  9488     0092  00AC               	movwf	___fldiv@b
  9489     0093  3080               	movlw	128
  9490     0094  04AE               	iorwf	___fldiv@b+2,f
  9491     0095  307F               	movlw	127
  9492     0096  04AF               	iorwf	___fldiv@b+3,f
  9493     0097                     l3022:
  9494     0097  0839               	movf	___fldiv@sign,w
  9495     0098  00FF               	movwf	btemp+1
  9496     0099  087F               	movf	btemp+1,w
  9497     009A  04AF               	iorwf	___fldiv@b+3,f
  9498     009B                     l3024:
  9499     009B  082F               	movf	___fldiv@b+3,w
  9500     009C  00AB               	movwf	?___fldiv+3
  9501     009D  082E               	movf	___fldiv@b+2,w
  9502     009E  00AA               	movwf	?___fldiv+2
  9503     009F  082D               	movf	___fldiv@b+1,w
  9504     00A0  00A9               	movwf	?___fldiv+1
  9505     00A1  082C               	movf	___fldiv@b,w
  9506     00A2  00A8               	movwf	?___fldiv
  9507     00A3  29FB               	goto	l851
  9508     00A4                     l3028:
  9509     00A4  0840               	movf	___fldiv@bexp,w
  9510     00A5  1D03               	btfss	3,2
  9511     00A6  28A8               	goto	u3691
  9512     00A7  28A9               	goto	u3690
  9513     00A8                     u3691:
  9514     00A8  28B2               	goto	l3034
  9515     00A9                     u3690:
  9516     00A9                     l3030:
  9517     00A9  3000               	movlw	0
  9518     00AA  00AB               	movwf	?___fldiv+3
  9519     00AB  3000               	movlw	0
  9520     00AC  00AA               	movwf	?___fldiv+2
  9521     00AD  3000               	movlw	0
  9522     00AE  00A9               	movwf	?___fldiv+1
  9523     00AF  3000               	movlw	0
  9524     00B0  00A8               	movwf	?___fldiv
  9525     00B1  29FB               	goto	l851
  9526     00B2                     l3034:
  9527     00B2  0840               	movf	___fldiv@bexp,w
  9528     00B3  00B0               	movwf	??___fldiv
  9529     00B4  01B1               	clrf	??___fldiv+1
  9530     00B5  0831               	movf	??___fldiv+1,w
  9531     00B6  00B3               	movwf	??___fldiv+3
  9532     00B7  0841               	movf	___fldiv@aexp,w
  9533     00B8  0230               	subwf	??___fldiv,w
  9534     00B9  00B2               	movwf	??___fldiv+2
  9535     00BA  1C03               	skipc
  9536     00BB  03B3               	decf	??___fldiv+3,f
  9537     00BC  0832               	movf	??___fldiv+2,w
  9538     00BD  3E7F               	addlw	127
  9539     00BE  00BA               	movwf	___fldiv@new_exp
  9540     00BF  0833               	movf	??___fldiv+3,w
  9541     00C0  1803               	skipnc
  9542     00C1  3E01               	addlw	1
  9543     00C2  3E00               	addlw	0
  9544     00C3  00BB               	movwf	___fldiv@new_exp+1
  9545     00C4                     l3036:
  9546     00C4  082F               	movf	___fldiv@b+3,w
  9547     00C5  00B8               	movwf	___fldiv@rem+3
  9548     00C6  082E               	movf	___fldiv@b+2,w
  9549     00C7  00B7               	movwf	___fldiv@rem+2
  9550     00C8  082D               	movf	___fldiv@b+1,w
  9551     00C9  00B6               	movwf	___fldiv@rem+1
  9552     00CA  082C               	movf	___fldiv@b,w
  9553     00CB  00B5               	movwf	___fldiv@rem
  9554     00CC                     l3038:
  9555     00CC  3000               	movlw	0
  9556     00CD  00AF               	movwf	___fldiv@b+3
  9557     00CE  3000               	movlw	0
  9558     00CF  00AE               	movwf	___fldiv@b+2
  9559     00D0  3000               	movlw	0
  9560     00D1  00AD               	movwf	___fldiv@b+1
  9561     00D2  3000               	movlw	0
  9562     00D3  00AC               	movwf	___fldiv@b
  9563     00D4                     l3040:
  9564     00D4  3000               	movlw	0
  9565     00D5  00BF               	movwf	___fldiv@grs+3
  9566     00D6  3000               	movlw	0
  9567     00D7  00BE               	movwf	___fldiv@grs+2
  9568     00D8  3000               	movlw	0
  9569     00D9  00BD               	movwf	___fldiv@grs+1
  9570     00DA  3000               	movlw	0
  9571     00DB  00BC               	movwf	___fldiv@grs
  9572     00DC                     l3042:
  9573     00DC  01C1               	clrf	___fldiv@aexp
  9574     00DD  2928               	goto	l3062
  9575     00DE                     l3044:
  9576     00DE  0841               	movf	___fldiv@aexp,w
  9577     00DF  1903               	btfsc	3,2
  9578     00E0  28E2               	goto	u3701
  9579     00E1  28E3               	goto	u3700
  9580     00E2                     u3701:
  9581     00E2  2903               	goto	l3054
  9582     00E3                     u3700:
  9583     00E3                     l3046:
  9584     00E3  3001               	movlw	1
  9585     00E4  00B0               	movwf	??___fldiv
  9586     00E5                     u3715:
  9587     00E5  1003               	clrc
  9588     00E6  0DB5               	rlf	___fldiv@rem,f
  9589     00E7  0DB6               	rlf	___fldiv@rem+1,f
  9590     00E8  0DB7               	rlf	___fldiv@rem+2,f
  9591     00E9  0DB8               	rlf	___fldiv@rem+3,f
  9592     00EA  0BB0               	decfsz	??___fldiv,f
  9593     00EB  28E5               	goto	u3715
  9594     00EC  3001               	movlw	1
  9595     00ED  00B0               	movwf	??___fldiv
  9596     00EE                     u3725:
  9597     00EE  1003               	clrc
  9598     00EF  0DAC               	rlf	___fldiv@b,f
  9599     00F0  0DAD               	rlf	___fldiv@b+1,f
  9600     00F1  0DAE               	rlf	___fldiv@b+2,f
  9601     00F2  0DAF               	rlf	___fldiv@b+3,f
  9602     00F3  0BB0               	decfsz	??___fldiv,f
  9603     00F4  28EE               	goto	u3725
  9604     00F5                     l3048:
  9605     00F5  1FBF               	btfss	___fldiv@grs+3,7
  9606     00F6  28F8               	goto	u3731
  9607     00F7  28F9               	goto	u3730
  9608     00F8                     u3731:
  9609     00F8  28FA               	goto	l3052
  9610     00F9                     u3730:
  9611     00F9                     l3050:
  9612     00F9  142C               	bsf	___fldiv@b,0
  9613     00FA                     l3052:
  9614     00FA  3001               	movlw	1
  9615     00FB  00B0               	movwf	??___fldiv
  9616     00FC                     u3745:
  9617     00FC  1003               	clrc
  9618     00FD  0DBC               	rlf	___fldiv@grs,f
  9619     00FE  0DBD               	rlf	___fldiv@grs+1,f
  9620     00FF  0DBE               	rlf	___fldiv@grs+2,f
  9621     0100  0DBF               	rlf	___fldiv@grs+3,f
  9622     0101  0BB0               	decfsz	??___fldiv,f
  9623     0102  28FC               	goto	u3745
  9624     0103                     l3054:
  9625     0103  082B               	movf	___fldiv@a+3,w
  9626     0104  0238               	subwf	___fldiv@rem+3,w
  9627     0105  1D03               	skipz
  9628     0106  2911               	goto	u3755
  9629     0107  082A               	movf	___fldiv@a+2,w
  9630     0108  0237               	subwf	___fldiv@rem+2,w
  9631     0109  1D03               	skipz
  9632     010A  2911               	goto	u3755
  9633     010B  0829               	movf	___fldiv@a+1,w
  9634     010C  0236               	subwf	___fldiv@rem+1,w
  9635     010D  1D03               	skipz
  9636     010E  2911               	goto	u3755
  9637     010F  0828               	movf	___fldiv@a,w
  9638     0110  0235               	subwf	___fldiv@rem,w
  9639     0111                     u3755:
  9640     0111  1C03               	skipc
  9641     0112  2914               	goto	u3751
  9642     0113  2915               	goto	u3750
  9643     0114                     u3751:
  9644     0114  2924               	goto	l3060
  9645     0115                     u3750:
  9646     0115                     l3056:
  9647     0115  173F               	bsf	___fldiv@grs+3,6
  9648     0116                     l3058:
  9649     0116  0828               	movf	___fldiv@a,w
  9650     0117  02B5               	subwf	___fldiv@rem,f
  9651     0118  0829               	movf	___fldiv@a+1,w
  9652     0119  1C03               	skipc
  9653     011A  0F29               	incfsz	___fldiv@a+1,w
  9654     011B  02B6               	subwf	___fldiv@rem+1,f
  9655     011C  082A               	movf	___fldiv@a+2,w
  9656     011D  1C03               	skipc
  9657     011E  0F2A               	incfsz	___fldiv@a+2,w
  9658     011F  02B7               	subwf	___fldiv@rem+2,f
  9659     0120  082B               	movf	___fldiv@a+3,w
  9660     0121  1C03               	skipc
  9661     0122  0F2B               	incfsz	___fldiv@a+3,w
  9662     0123  02B8               	subwf	___fldiv@rem+3,f
  9663     0124                     l3060:
  9664     0124  3001               	movlw	1
  9665     0125  00FF               	movwf	btemp+1
  9666     0126  087F               	movf	btemp+1,w
  9667     0127  07C1               	addwf	___fldiv@aexp,f
  9668     0128                     l3062:
  9669     0128  301A               	movlw	26
  9670     0129  0241               	subwf	___fldiv@aexp,w
  9671     012A  1C03               	skipc
  9672     012B  292D               	goto	u3761
  9673     012C  292E               	goto	u3760
  9674     012D                     u3761:
  9675     012D  28DE               	goto	l3044
  9676     012E                     u3760:
  9677     012E                     l3064:
  9678     012E  0838               	movf	___fldiv@rem+3,w
  9679     012F  0437               	iorwf	___fldiv@rem+2,w
  9680     0130  0436               	iorwf	___fldiv@rem+1,w
  9681     0131  0435               	iorwf	___fldiv@rem,w
  9682     0132  1903               	skipnz
  9683     0133  2935               	goto	u3771
  9684     0134  2936               	goto	u3770
  9685     0135                     u3771:
  9686     0135  2955               	goto	l3078
  9687     0136                     u3770:
  9688     0136                     l3066:
  9689     0136  143C               	bsf	___fldiv@grs,0
  9690     0137  2955               	goto	l3078
  9691     0138                     l3068:
  9692     0138  3001               	movlw	1
  9693     0139  00B0               	movwf	??___fldiv
  9694     013A                     u3785:
  9695     013A  1003               	clrc
  9696     013B  0DAC               	rlf	___fldiv@b,f
  9697     013C  0DAD               	rlf	___fldiv@b+1,f
  9698     013D  0DAE               	rlf	___fldiv@b+2,f
  9699     013E  0DAF               	rlf	___fldiv@b+3,f
  9700     013F  0BB0               	decfsz	??___fldiv,f
  9701     0140  293A               	goto	u3785
  9702     0141                     l3070:
  9703     0141  1FBF               	btfss	___fldiv@grs+3,7
  9704     0142  2944               	goto	u3791
  9705     0143  2945               	goto	u3790
  9706     0144                     u3791:
  9707     0144  2946               	goto	l3074
  9708     0145                     u3790:
  9709     0145                     l3072:
  9710     0145  142C               	bsf	___fldiv@b,0
  9711     0146                     l3074:
  9712     0146  3001               	movlw	1
  9713     0147  00B0               	movwf	??___fldiv
  9714     0148                     u3805:
  9715     0148  1003               	clrc
  9716     0149  0DBC               	rlf	___fldiv@grs,f
  9717     014A  0DBD               	rlf	___fldiv@grs+1,f
  9718     014B  0DBE               	rlf	___fldiv@grs+2,f
  9719     014C  0DBF               	rlf	___fldiv@grs+3,f
  9720     014D  0BB0               	decfsz	??___fldiv,f
  9721     014E  2948               	goto	u3805
  9722     014F                     l3076:
  9723     014F  30FF               	movlw	255
  9724     0150  07BA               	addwf	___fldiv@new_exp,f
  9725     0151  1803               	skipnc
  9726     0152  0ABB               	incf	___fldiv@new_exp+1,f
  9727     0153  30FF               	movlw	255
  9728     0154  07BB               	addwf	___fldiv@new_exp+1,f
  9729     0155                     l3078:
  9730     0155  1FAE               	btfss	___fldiv@b+2,7
  9731     0156  2958               	goto	u3811
  9732     0157  2959               	goto	u3810
  9733     0158                     u3811:
  9734     0158  2938               	goto	l3068
  9735     0159                     u3810:
  9736     0159                     l3080:
  9737     0159  01C1               	clrf	___fldiv@aexp
  9738     015A                     l3082:
  9739     015A  1FBF               	btfss	___fldiv@grs+3,7
  9740     015B  295D               	goto	u3821
  9741     015C  295E               	goto	u3820
  9742     015D                     u3821:
  9743     015D  297A               	goto	l3090
  9744     015E                     u3820:
  9745     015E                     l3084:
  9746     015E  30FF               	movlw	255
  9747     015F  053C               	andwf	___fldiv@grs,w
  9748     0160  00B0               	movwf	??___fldiv
  9749     0161  30FF               	movlw	255
  9750     0162  053D               	andwf	___fldiv@grs+1,w
  9751     0163  00B1               	movwf	??___fldiv+1
  9752     0164  30FF               	movlw	255
  9753     0165  053E               	andwf	___fldiv@grs+2,w
  9754     0166  00B2               	movwf	??___fldiv+2
  9755     0167  307F               	movlw	127
  9756     0168  053F               	andwf	___fldiv@grs+3,w
  9757     0169  00B3               	movwf	??___fldiv+3
  9758     016A  0833               	movf	??___fldiv+3,w
  9759     016B  0432               	iorwf	??___fldiv+2,w
  9760     016C  0431               	iorwf	??___fldiv+1,w
  9761     016D  0430               	iorwf	??___fldiv,w
  9762     016E  1903               	skipnz
  9763     016F  2971               	goto	u3831
  9764     0170  2972               	goto	u3830
  9765     0171                     u3831:
  9766     0171  2975               	goto	l865
  9767     0172                     u3830:
  9768     0172                     l3086:
  9769     0172  01C1               	clrf	___fldiv@aexp
  9770     0173  0AC1               	incf	___fldiv@aexp,f
  9771     0174  297A               	goto	l3090
  9772     0175                     l865:
  9773     0175  1C2C               	btfss	___fldiv@b,0
  9774     0176  2978               	goto	u3841
  9775     0177  2979               	goto	u3840
  9776     0178                     u3841:
  9777     0178  297A               	goto	l3090
  9778     0179                     u3840:
  9779     0179  2972               	goto	l3086
  9780     017A                     l3090:
  9781     017A  0841               	movf	___fldiv@aexp,w
  9782     017B  1903               	btfsc	3,2
  9783     017C  297E               	goto	u3851
  9784     017D  297F               	goto	u3850
  9785     017E                     u3851:
  9786     017E  29B0               	goto	l3100
  9787     017F                     u3850:
  9788     017F                     l3092:
  9789     017F  3001               	movlw	1
  9790     0180  07AC               	addwf	___fldiv@b,f
  9791     0181  3000               	movlw	0
  9792     0182  1803               	skipnc
  9793     0183  3001               	movlw	1
  9794     0184  07AD               	addwf	___fldiv@b+1,f
  9795     0185  3000               	movlw	0
  9796     0186  1803               	skipnc
  9797     0187  3001               	movlw	1
  9798     0188  07AE               	addwf	___fldiv@b+2,f
  9799     0189  3000               	movlw	0
  9800     018A  1803               	skipnc
  9801     018B  3001               	movlw	1
  9802     018C  07AF               	addwf	___fldiv@b+3,f
  9803     018D                     l3094:
  9804     018D  1C2F               	btfss	___fldiv@b+3,0
  9805     018E  2990               	goto	u3861
  9806     018F  2991               	goto	u3860
  9807     0190                     u3861:
  9808     0190  29B0               	goto	l3100
  9809     0191                     u3860:
  9810     0191                     l3096:
  9811     0191  082C               	movf	___fldiv@b,w
  9812     0192  00B0               	movwf	??___fldiv
  9813     0193  082D               	movf	___fldiv@b+1,w
  9814     0194  00B1               	movwf	??___fldiv+1
  9815     0195  082E               	movf	___fldiv@b+2,w
  9816     0196  00B2               	movwf	??___fldiv+2
  9817     0197  082F               	movf	___fldiv@b+3,w
  9818     0198  00B3               	movwf	??___fldiv+3
  9819     0199  3001               	movlw	1
  9820     019A  00B4               	movwf	??___fldiv+4
  9821     019B                     u3875:
  9822     019B  0D33               	rlf	??___fldiv+3,w
  9823     019C  0CB3               	rrf	??___fldiv+3,f
  9824     019D  0CB2               	rrf	??___fldiv+2,f
  9825     019E  0CB1               	rrf	??___fldiv+1,f
  9826     019F  0CB0               	rrf	??___fldiv,f
  9827     01A0                     u3870:
  9828     01A0  0BB4               	decfsz	??___fldiv+4,f
  9829     01A1  299B               	goto	u3875
  9830     01A2  0833               	movf	??___fldiv+3,w
  9831     01A3  00AF               	movwf	___fldiv@b+3
  9832     01A4  0832               	movf	??___fldiv+2,w
  9833     01A5  00AE               	movwf	___fldiv@b+2
  9834     01A6  0831               	movf	??___fldiv+1,w
  9835     01A7  00AD               	movwf	___fldiv@b+1
  9836     01A8  0830               	movf	??___fldiv,w
  9837     01A9  00AC               	movwf	___fldiv@b
  9838     01AA                     l3098:
  9839     01AA  3001               	movlw	1
  9840     01AB  07BA               	addwf	___fldiv@new_exp,f
  9841     01AC  1803               	skipnc
  9842     01AD  0ABB               	incf	___fldiv@new_exp+1,f
  9843     01AE  3000               	movlw	0
  9844     01AF  07BB               	addwf	___fldiv@new_exp+1,f
  9845     01B0                     l3100:
  9846     01B0  083B               	movf	___fldiv@new_exp+1,w
  9847     01B1  3A80               	xorlw	128
  9848     01B2  00FF               	movwf	btemp+1
  9849     01B3  3080               	movlw	128
  9850     01B4  027F               	subwf	btemp+1,w
  9851     01B5  1D03               	skipz
  9852     01B6  29B9               	goto	u3885
  9853     01B7  30FF               	movlw	255
  9854     01B8  023A               	subwf	___fldiv@new_exp,w
  9855     01B9                     u3885:
  9856     01B9  1C03               	skipc
  9857     01BA  29BC               	goto	u3881
  9858     01BB  29BD               	goto	u3880
  9859     01BC                     u3881:
  9860     01BC  29CB               	goto	l3104
  9861     01BD                     u3880:
  9862     01BD                     l3102:
  9863     01BD  30FF               	movlw	255
  9864     01BE  1283               	bcf	3,5	;RP0=0, select bank0
  9865     01BF  1303               	bcf	3,6	;RP1=0, select bank0
  9866     01C0  00BA               	movwf	___fldiv@new_exp
  9867     01C1  3000               	movlw	0
  9868     01C2  00BB               	movwf	___fldiv@new_exp+1
  9869     01C3  3000               	movlw	0
  9870     01C4  00AF               	movwf	___fldiv@b+3
  9871     01C5  3000               	movlw	0
  9872     01C6  00AE               	movwf	___fldiv@b+2
  9873     01C7  3000               	movlw	0
  9874     01C8  00AD               	movwf	___fldiv@b+1
  9875     01C9  3000               	movlw	0
  9876     01CA  00AC               	movwf	___fldiv@b
  9877     01CB                     l3104:
  9878     01CB  1283               	bcf	3,5	;RP0=0, select bank0
  9879     01CC  1303               	bcf	3,6	;RP1=0, select bank0
  9880     01CD  083B               	movf	___fldiv@new_exp+1,w
  9881     01CE  3A80               	xorlw	128
  9882     01CF  00FF               	movwf	btemp+1
  9883     01D0  3080               	movlw	128
  9884     01D1  027F               	subwf	btemp+1,w
  9885     01D2  1D03               	skipz
  9886     01D3  29D6               	goto	u3895
  9887     01D4  3001               	movlw	1
  9888     01D5  023A               	subwf	___fldiv@new_exp,w
  9889     01D6                     u3895:
  9890     01D6  1803               	skipnc
  9891     01D7  29D9               	goto	u3891
  9892     01D8  29DA               	goto	u3890
  9893     01D9                     u3891:
  9894     01D9  29E7               	goto	l871
  9895     01DA                     u3890:
  9896     01DA                     l3106:
  9897     01DA  1283               	bcf	3,5	;RP0=0, select bank0
  9898     01DB  1303               	bcf	3,6	;RP1=0, select bank0
  9899     01DC  01BA               	clrf	___fldiv@new_exp
  9900     01DD  01BB               	clrf	___fldiv@new_exp+1
  9901     01DE                     l3108:
  9902     01DE  3000               	movlw	0
  9903     01DF  00AF               	movwf	___fldiv@b+3
  9904     01E0  3000               	movlw	0
  9905     01E1  00AE               	movwf	___fldiv@b+2
  9906     01E2  3000               	movlw	0
  9907     01E3  00AD               	movwf	___fldiv@b+1
  9908     01E4  3000               	movlw	0
  9909     01E5  00AC               	movwf	___fldiv@b
  9910     01E6                     l3110:
  9911     01E6  01B9               	clrf	___fldiv@sign
  9912     01E7                     l871:
  9913     01E7  1283               	bcf	3,5	;RP0=0, select bank0
  9914     01E8  1303               	bcf	3,6	;RP1=0, select bank0
  9915     01E9  083A               	movf	___fldiv@new_exp,w
  9916     01EA  00C0               	movwf	___fldiv@bexp
  9917     01EB                     l3112:
  9918     01EB  1C40               	btfss	___fldiv@bexp,0
  9919     01EC  29EE               	goto	u3901
  9920     01ED  29EF               	goto	u3900
  9921     01EE                     u3901:
  9922     01EE  29F1               	goto	l3116
  9923     01EF                     u3900:
  9924     01EF                     l3114:
  9925     01EF  17AE               	bsf	___fldiv@b+2,7
  9926     01F0  29F5               	goto	l3118
  9927     01F1                     l3116:
  9928     01F1  307F               	movlw	127
  9929     01F2  00FF               	movwf	btemp+1
  9930     01F3  087F               	movf	btemp+1,w
  9931     01F4  05AE               	andwf	___fldiv@b+2,f
  9932     01F5                     l3118:
  9933     01F5  0840               	movf	___fldiv@bexp,w
  9934     01F6  00B0               	movwf	??___fldiv
  9935     01F7  1003               	clrc
  9936     01F8  0C30               	rrf	??___fldiv,w
  9937     01F9  00AF               	movwf	___fldiv@b+3
  9938     01FA  2897               	goto	l3022
  9939     01FB                     l851:
  9940     01FB  0008               	return
  9941     01FC                     __end_of___fldiv:
  9942                           
  9943                           	psect	text38
  9944     116A                     __ptext38:	
  9945 ;; *************** function _HIH5030_initADC *****************
  9946 ;; Defined at:
  9947 ;;		line 70 in file "sensors.c"
  9948 ;; Parameters:    Size  Location     Type
  9949 ;;		None
  9950 ;; Auto vars:     Size  Location     Type
  9951 ;;		None
  9952 ;; Return value:  Size  Location     Type
  9953 ;;                  1    wreg      void 
  9954 ;; Registers used:
  9955 ;;		wreg, status,2
  9956 ;; Tracked objects:
  9957 ;;		On entry : 0/0
  9958 ;;		On exit  : 0/0
  9959 ;;		Unchanged: 0/0
  9960 ;; Data sizes:     COMMON   BANK0   BANK1   BANK3   BANK2
  9961 ;;      Params:         0       0       0       0       0
  9962 ;;      Locals:         0       0       0       0       0
  9963 ;;      Temps:          0       0       0       0       0
  9964 ;;      Totals:         0       0       0       0       0
  9965 ;;Total ram usage:        0 bytes
  9966 ;; Hardware stack levels used: 1
  9967 ;; This function calls:
  9968 ;;		Nothing
  9969 ;; This function is called by:
  9970 ;;		_main
  9971 ;; This function uses a non-reentrant model
  9972 ;;
  9973                           
  9974     116A                     _HIH5030_initADC:	
  9975                           ;psect for function _HIH5030_initADC
  9976                           
  9977     116A                     l3430:	
  9978                           ;incstack = 0
  9979                           ; Regs used in _HIH5030_initADC: [wreg+status,2]
  9980                           
  9981                           
  9982                           ;sensors.c: 71:     TRISAbits.TRISA1 |=1;
  9983     116A  1683               	bsf	3,5	;RP0=1, select bank1
  9984     116B  1303               	bcf	3,6	;RP1=0, select bank1
  9985     116C  1485               	bsf	5,1	;volatile
  9986     116D                     l3432:
  9987                           
  9988                           ;sensors.c: 72:     ADCON0 = 0x05;
  9989     116D  3005               	movlw	5
  9990     116E  1283               	bcf	3,5	;RP0=0, select bank0
  9991     116F  1303               	bcf	3,6	;RP1=0, select bank0
  9992     1170  009F               	movwf	31	;volatile
  9993     1171                     l3434:
  9994                           
  9995                           ;sensors.c: 73:     ADCON1 = 0x00;
  9996     1171  1683               	bsf	3,5	;RP0=1, select bank1
  9997     1172  1303               	bcf	3,6	;RP1=0, select bank1
  9998     1173  019F               	clrf	31	;volatile
  9999     1174                     l391:
 10000     1174  0008               	return
 10001     1175                     __end_of_HIH5030_initADC:
 10002                           
 10003                           	psect	text39
 10004     1326                     __ptext39:	
 10005 ;; *************** function _DHT11_readData *****************
 10006 ;; Defined at:
 10007 ;;		line 15 in file "sensors.c"
 10008 ;; Parameters:    Size  Location     Type
 10009 ;;		None
 10010 ;; Auto vars:     Size  Location     Type
 10011 ;;  i               1    2[COMMON] unsigned char 
 10012 ;;  data            1    1[COMMON] unsigned char 
 10013 ;; Return value:  Size  Location     Type
 10014 ;;                  1    wreg      unsigned char 
 10015 ;; Registers used:
 10016 ;;		wreg, status,2, status,0, btemp+1
 10017 ;; Tracked objects:
 10018 ;;		On entry : 0/0
 10019 ;;		On exit  : 0/0
 10020 ;;		Unchanged: 0/0
 10021 ;; Data sizes:     COMMON   BANK0   BANK1   BANK3   BANK2
 10022 ;;      Params:         0       0       0       0       0
 10023 ;;      Locals:         2       0       0       0       0
 10024 ;;      Temps:          1       0       0       0       0
 10025 ;;      Totals:         3       0       0       0       0
 10026 ;;Total ram usage:        3 bytes
 10027 ;; Hardware stack levels used: 1
 10028 ;; This function calls:
 10029 ;;		Nothing
 10030 ;; This function is called by:
 10031 ;;		_main
 10032 ;; This function uses a non-reentrant model
 10033 ;;
 10034                           
 10035     1326                     _DHT11_readData:	
 10036                           ;psect for function _DHT11_readData
 10037                           
 10038     1326                     l3388:	
 10039                           ;incstack = 0
 10040                           ; Regs used in _DHT11_readData: [wreg+status,2+status,0+btemp+1]
 10041                           
 10042                           
 10043                           ;sensors.c: 16:     char i, data = 0;
 10044     1326  01F1               	clrf	DHT11_readData@data
 10045                           
 10046                           ;sensors.c: 17:     for(i = 0; i < 8; i++){
 10047     1327  01F2               	clrf	DHT11_readData@i
 10048     1328                     l359:
 10049     1328  1283               	bcf	3,5	;RP0=0, select bank0
 10050     1329  1303               	bcf	3,6	;RP1=0, select bank0
 10051     132A  1C08               	btfss	8,0	;volatile
 10052     132B  2B2D               	goto	u4361
 10053     132C  2B2E               	goto	u4360
 10054     132D                     u4361:
 10055     132D  2B28               	goto	l359
 10056     132E                     u4360:
 10057     132E                     l3394:
 10058                           
 10059                           ;sensors.c: 19:         _delay((unsigned long)((30)*(8000000/4000000.0)));
 10060     132E  3013               	movlw	19
 10061     132F  00F0               	movwf	??_DHT11_readData
 10062     1330                     u5197:
 10063     1330  0BF0               	decfsz	??_DHT11_readData,f
 10064     1331  2B30               	goto	u5197
 10065     1332  2B33               	nop2
 10066     1333                     l3396:
 10067                           
 10068                           ;sensors.c: 20:         if(PORTDbits.RD0 == 0)
 10069     1333  1283               	bcf	3,5	;RP0=0, select bank0
 10070     1334  1303               	bcf	3,6	;RP1=0, select bank0
 10071     1335  1808               	btfsc	8,0	;volatile
 10072     1336  2B38               	goto	u4371
 10073     1337  2B39               	goto	u4370
 10074     1338                     u4371:
 10075     1338  2B4A               	goto	l3400
 10076     1339                     u4370:
 10077     1339                     l3398:
 10078                           
 10079                           ;sensors.c: 21:             data &= ~(1 << (7 - i));
 10080     1339  3001               	movlw	1
 10081     133A  00F0               	movwf	??_DHT11_readData
 10082     133B  0872               	movf	DHT11_readData@i,w
 10083     133C  3C07               	sublw	7
 10084     133D  3E01               	addlw	1
 10085     133E  2B41               	goto	u4384
 10086     133F                     u4385:
 10087     133F  1003               	clrc
 10088     1340  0DF0               	rlf	??_DHT11_readData,f
 10089     1341                     u4384:
 10090     1341  3EFF               	addlw	-1
 10091     1342  1D03               	skipz
 10092     1343  2B3F               	goto	u4385
 10093     1344  0870               	movf	??_DHT11_readData,w
 10094     1345  3AFF               	xorlw	255
 10095     1346  00FF               	movwf	btemp+1
 10096     1347  087F               	movf	btemp+1,w
 10097     1348  05F1               	andwf	DHT11_readData@data,f
 10098     1349  2B5D               	goto	l3402
 10099     134A                     l3400:
 10100                           
 10101                           ;sensors.c: 23:             data |= (1 << (7 - i));
 10102     134A  3001               	movlw	1
 10103     134B  00F0               	movwf	??_DHT11_readData
 10104     134C  0872               	movf	DHT11_readData@i,w
 10105     134D  3C07               	sublw	7
 10106     134E  3E01               	addlw	1
 10107     134F  2B52               	goto	u4394
 10108     1350                     u4395:
 10109     1350  1003               	clrc
 10110     1351  0DF0               	rlf	??_DHT11_readData,f
 10111     1352                     u4394:
 10112     1352  3EFF               	addlw	-1
 10113     1353  1D03               	skipz
 10114     1354  2B50               	goto	u4395
 10115     1355  0870               	movf	??_DHT11_readData,w
 10116     1356  00FF               	movwf	btemp+1
 10117     1357  087F               	movf	btemp+1,w
 10118     1358  04F1               	iorwf	DHT11_readData@data,f
 10119     1359                     l364:	
 10120                           ;sensors.c: 24:             while(PORTDbits.RD0);
 10121                           
 10122     1359  1808               	btfsc	8,0	;volatile
 10123     135A  2B5C               	goto	u4401
 10124     135B  2B5D               	goto	u4400
 10125     135C                     u4401:
 10126     135C  2B59               	goto	l364
 10127     135D                     u4400:
 10128     135D                     l3402:
 10129                           
 10130                           ;sensors.c: 26:     }
 10131     135D  3001               	movlw	1
 10132     135E  00FF               	movwf	btemp+1
 10133     135F  087F               	movf	btemp+1,w
 10134     1360  07F2               	addwf	DHT11_readData@i,f
 10135     1361                     l3404:
 10136     1361  3008               	movlw	8
 10137     1362  0272               	subwf	DHT11_readData@i,w
 10138     1363  1C03               	skipc
 10139     1364  2B66               	goto	u4411
 10140     1365  2B67               	goto	u4410
 10141     1366                     u4411:
 10142     1366  2B28               	goto	l359
 10143     1367                     u4410:
 10144     1367                     l3406:
 10145                           
 10146                           ;sensors.c: 27:     return data;
 10147     1367  0871               	movf	DHT11_readData@data,w
 10148     1368                     l367:
 10149     1368  0008               	return
 10150     1369                     __end_of_DHT11_readData:
 10151                           
 10152                           	psect	text40
 10153     11D6                     __ptext40:	
 10154 ;; *************** function _DHT11_checkResponse *****************
 10155 ;; Defined at:
 10156 ;;		line 40 in file "sensors.c"
 10157 ;; Parameters:    Size  Location     Type
 10158 ;;		None
 10159 ;; Auto vars:     Size  Location     Type
 10160 ;;		None
 10161 ;; Return value:  Size  Location     Type
 10162 ;;                  1    wreg      void 
 10163 ;; Registers used:
 10164 ;;		wreg, status,2
 10165 ;; Tracked objects:
 10166 ;;		On entry : 0/0
 10167 ;;		On exit  : 0/0
 10168 ;;		Unchanged: 0/0
 10169 ;; Data sizes:     COMMON   BANK0   BANK1   BANK3   BANK2
 10170 ;;      Params:         0       0       0       0       0
 10171 ;;      Locals:         0       0       0       0       0
 10172 ;;      Temps:          1       0       0       0       0
 10173 ;;      Totals:         1       0       0       0       0
 10174 ;;Total ram usage:        1 bytes
 10175 ;; Hardware stack levels used: 1
 10176 ;; This function calls:
 10177 ;;		Nothing
 10178 ;; This function is called by:
 10179 ;;		_main
 10180 ;; This function uses a non-reentrant model
 10181 ;;
 10182                           
 10183     11D6                     _DHT11_checkResponse:	
 10184                           ;psect for function _DHT11_checkResponse
 10185                           
 10186     11D6                     l3384:	
 10187                           ;incstack = 0
 10188                           ; Regs used in _DHT11_checkResponse: [wreg+status,2]
 10189                           
 10190                           
 10191                           ;sensors.c: 41:     check_bit = 0;
 10192     11D6  1683               	bsf	3,5	;RP0=1, select bank1
 10193     11D7  1303               	bcf	3,6	;RP1=0, select bank1
 10194     11D8  01E6               	clrf	_check_bit^(0+128)
 10195     11D9  01E7               	clrf	(_check_bit+1)^(0+128)
 10196     11DA                     l373:	
 10197                           ;sensors.c: 42:     while(PORTDbits.RD0 == 1);
 10198                           
 10199     11DA  1283               	bcf	3,5	;RP0=0, select bank0
 10200     11DB  1808               	btfsc	8,0	;volatile
 10201     11DC  29DE               	goto	u4341
 10202     11DD  29DF               	goto	u4340
 10203     11DE                     u4341:
 10204     11DE  29DA               	goto	l373
 10205     11DF                     u4340:
 10206     11DF                     l376:
 10207     11DF  1C08               	btfss	8,0	;volatile
 10208     11E0  29E2               	goto	u4351
 10209     11E1  29E3               	goto	u4350
 10210     11E2                     u4351:
 10211     11E2  29DF               	goto	l376
 10212     11E3                     u4350:
 10213     11E3                     l3386:
 10214                           
 10215                           ;sensors.c: 44:     check_bit=1;
 10216     11E3  3001               	movlw	1
 10217     11E4  1683               	bsf	3,5	;RP0=1, select bank1
 10218     11E5  1303               	bcf	3,6	;RP1=0, select bank1
 10219     11E6  00E6               	movwf	_check_bit^(0+128)
 10220     11E7  3000               	movlw	0
 10221     11E8  00E7               	movwf	(_check_bit^(0+128)+1)
 10222                           
 10223                           ;sensors.c: 45:     _delay((unsigned long)((50)*(8000000/4000000.0)));
 10224     11E9  3021               	movlw	33
 10225     11EA  00F0               	movwf	??_DHT11_checkResponse
 10226     11EB                     u5207:
 10227     11EB  0BF0               	decfsz	??_DHT11_checkResponse,f
 10228     11EC  29EB               	goto	u5207
 10229     11ED                     l379:
 10230     11ED  0008               	return
 10231     11EE                     __end_of_DHT11_checkResponse:
 10232                           
 10233                           	psect	text41
 10234     1208                     __ptext41:	
 10235 ;; *************** function _DHT11_Start *****************
 10236 ;; Defined at:
 10237 ;;		line 30 in file "sensors.c"
 10238 ;; Parameters:    Size  Location     Type
 10239 ;;		None
 10240 ;; Auto vars:     Size  Location     Type
 10241 ;;		None
 10242 ;; Return value:  Size  Location     Type
 10243 ;;                  1    wreg      void 
 10244 ;; Registers used:
 10245 ;;		wreg
 10246 ;; Tracked objects:
 10247 ;;		On entry : 0/0
 10248 ;;		On exit  : 0/0
 10249 ;;		Unchanged: 0/0
 10250 ;; Data sizes:     COMMON   BANK0   BANK1   BANK3   BANK2
 10251 ;;      Params:         0       0       0       0       0
 10252 ;;      Locals:         0       0       0       0       0
 10253 ;;      Temps:          2       0       0       0       0
 10254 ;;      Totals:         2       0       0       0       0
 10255 ;;Total ram usage:        2 bytes
 10256 ;; Hardware stack levels used: 1
 10257 ;; This function calls:
 10258 ;;		Nothing
 10259 ;; This function is called by:
 10260 ;;		_main
 10261 ;; This function uses a non-reentrant model
 10262 ;;
 10263                           
 10264     1208                     _DHT11_Start:	
 10265                           ;psect for function _DHT11_Start
 10266                           
 10267     1208                     l3378:	
 10268                           ;incstack = 0
 10269                           ; Regs used in _DHT11_Start: [wreg]
 10270                           
 10271                           
 10272                           ;sensors.c: 31:     TRISDbits.TRISD0 |= 0;
 10273     1208  1683               	bsf	3,5	;RP0=1, select bank1
 10274     1209  1303               	bcf	3,6	;RP1=0, select bank1
 10275     120A  0808               	movf	8,w	;volatile
 10276     120B                     l3380:
 10277                           
 10278                           ;sensors.c: 32:     PORTDbits.RD0 = 0;
 10279     120B  1283               	bcf	3,5	;RP0=0, select bank0
 10280     120C  1303               	bcf	3,6	;RP1=0, select bank0
 10281     120D  1008               	bcf	8,0	;volatile
 10282                           
 10283                           ;sensors.c: 33:     _delay((unsigned long)((18)*(8000000/4000.0)));
 10284     120E  302F               	movlw	47
 10285     120F  00F1               	movwf	??_DHT11_Start+1
 10286     1210  30BF               	movlw	191
 10287     1211  00F0               	movwf	??_DHT11_Start
 10288     1212                     u5217:
 10289     1212  0BF0               	decfsz	??_DHT11_Start,f
 10290     1213  2A12               	goto	u5217
 10291     1214  0BF1               	decfsz	??_DHT11_Start+1,f
 10292     1215  2A12               	goto	u5217
 10293     1216  2A17               	nop2
 10294     1217                     l3382:
 10295                           
 10296                           ;sensors.c: 34:     PORTDbits.RD0 = 1;
 10297     1217  1283               	bcf	3,5	;RP0=0, select bank0
 10298     1218  1303               	bcf	3,6	;RP1=0, select bank0
 10299     1219  1408               	bsf	8,0	;volatile
 10300                           
 10301                           ;sensors.c: 35:     _delay((unsigned long)((25)*(8000000/4000000.0)));
 10302     121A  3010               	movlw	16
 10303     121B  00F0               	movwf	??_DHT11_Start
 10304     121C                     u5227:
 10305     121C  0BF0               	decfsz	??_DHT11_Start,f
 10306     121D  2A1C               	goto	u5227
 10307     121E  0000               	nop
 10308                           
 10309                           ;sensors.c: 36:     TRISDbits.TRISD0 &= 1;
 10310     121F  1683               	bsf	3,5	;RP0=1, select bank1
 10311     1220  1303               	bcf	3,6	;RP1=0, select bank1
 10312     1221  0808               	movf	8,w	;volatile
 10313     1222                     l370:
 10314     1222  0008               	return
 10315     1223                     __end_of_DHT11_Start:
 10316     007E                     btemp	set	126	;btemp
 10317     007E                     wtemp0	set	126
 10318                           
 10319                           	psect	idloc
 10320                           
 10321                           ;Config register IDLOC0 @ 0x2000
 10322                           ;	unspecified, using default values
 10323     2000                     	org	8192
 10324     2000  3FFF               	dw	16383
 10325                           
 10326                           ;Config register IDLOC1 @ 0x2001
 10327                           ;	unspecified, using default values
 10328     2001                     	org	8193
 10329     2001  3FFF               	dw	16383
 10330                           
 10331                           ;Config register IDLOC2 @ 0x2002
 10332                           ;	unspecified, using default values
 10333     2002                     	org	8194
 10334     2002  3FFF               	dw	16383
 10335                           
 10336                           ;Config register IDLOC3 @ 0x2003
 10337                           ;	unspecified, using default values
 10338     2003                     	org	8195
 10339     2003  3FFF               	dw	16383
 10340                           
 10341                           	psect	config
 10342                           
 10343                           ;Config register CONFIG1 @ 0x2007
 10344                           ;	Oscillator Selection bits
 10345                           ;	FOSC = INTRC_NOCLKOUT, INTOSCIO oscillator: I/O function on RA6/OSC2/CLKOUT pin, I/O f
      +                          unction on RA7/OSC1/CLKIN
 10346                           ;	Watchdog Timer Enable bit
 10347                           ;	WDTE = OFF, WDT disabled and can be enabled by SWDTEN bit of the WDTCON register
 10348                           ;	Power-up Timer Enable bit
 10349                           ;	PWRTE = ON, PWRT enabled
 10350                           ;	RE3/MCLR pin function select bit
 10351                           ;	MCLRE = ON, RE3/MCLR pin function is MCLR
 10352                           ;	Code Protection bit
 10353                           ;	CP = OFF, Program memory code protection is disabled
 10354                           ;	Data Code Protection bit
 10355                           ;	CPD = OFF, Data memory code protection is disabled
 10356                           ;	Brown Out Reset Selection bits
 10357                           ;	BOREN = ON, BOR enabled
 10358                           ;	Internal External Switchover bit
 10359                           ;	IESO = OFF, Internal/External Switchover mode is disabled
 10360                           ;	Fail-Safe Clock Monitor Enabled bit
 10361                           ;	FCMEN = OFF, Fail-Safe Clock Monitor is disabled
 10362                           ;	Low Voltage Programming Enable bit
 10363                           ;	LVP = OFF, RB3 pin has digital I/O, HV on MCLR must be used for programming
 10364                           ;	In-Circuit Debugger Mode bit
 10365                           ;	DEBUG = 0x1, unprogrammed default
 10366     2007                     	org	8199
 10367     2007  23E4               	dw	9188
 10368                           
 10369                           ;Config register CONFIG2 @ 0x2008
 10370                           ;	Brown-out Reset Selection bit
 10371                           ;	BOR4V = BOR40V, Brown-out Reset set to 4.0V
 10372                           ;	Flash Program Memory Self Write Enable bits
 10373                           ;	WRT = OFF, Write protection off
 10374     2008                     	org	8200
 10375     2008  3FFF               	dw	16383

Data Sizes:
    Strings     146
    Constant    0
    Data        19
    BSS         22
    Persistent  1
    Stack       0

Auto Spaces:
    Space          Size  Autos    Used
    COMMON           14     14      14
    BANK0            80     79      80
    BANK1            80     52      79
    BANK3            96      0      14
    BANK2            96      0       0

Pointer List with Targets:

    lcd_writeString@str	PTR unsigned char  size(1) Largest target is 16
		 -> STR_27(CODE[8]), STR_26(CODE[8]), STR_25(CODE[9]), STR_24(CODE[5]), 
		 -> STR_23(CODE[6]), STR_22(CODE[9]), STR_21(CODE[16]), STR_20(CODE[5]), 
		 -> STR_19(CODE[6]), STR_18(CODE[8]), STR_17(CODE[5]), STR_16(CODE[11]), 
		 -> STR_15(CODE[5]), STR_14(CODE[11]), STR_13(CODE[8]), STR_12(CODE[11]), 
		 -> STR_11(CODE[4]), STR_10(CODE[4]), STR_9(CODE[4]), STR_8(CODE[4]), 
		 -> STR_7(CODE[4]), STR_6(CODE[4]), STR_5(CODE[4]), STR_4(CODE[4]), 
		 -> STR_3(CODE[6]), STR_2(CODE[7]), STR_1(CODE[13]), 


Critical Paths under _main in COMMON

    _rtc_readTime->_i2c_readByte
    _rtc_readDate->_i2c_readByte
    _printInteger->___awmod
    ___awmod->___awdiv
    _lcd_writeString->_lcd_writeChar
    _lcd_writeChar->_lcd_write4Bit
    _lcd_setCursor->_lcd_cmd
    _lcd_init->_lcd_cmd
    _lcd_clear->_lcd_cmd
    _lcd_cmd->_lcd_write4Bit
    _lcd_write4Bit->_io_expanderWrite
    _io_expanderWrite->_i2c_masterWrite
    _LM35_readData->___xxtofl
    _LDR1_readData->___awdiv
    _HIH5030_readData->___xxtofl
    _roundFloat->___xxtofl
    ___xxtofl->___wmul
    ___flsub->___xxtofl
    ___flmul->___fladd
    ___fldiv->___fladd

Critical Paths under _main in BANK0

    _main->_printInteger
    _printInteger->_HIH5030_readData
    _LM35_readData->___flmul
    _HIH5030_readData->___flmul
    _roundFloat->___flsub
    ___flsub->___fladd
    ___flmul->___fldiv
    ___fldiv->___fladd

Critical Paths under _main in BANK1

    None.

Critical Paths under _main in BANK3

    None.

Critical Paths under _main in BANK2

    None.

Call Graph Tables:

 ---------------------------------------------------------------------------------
 (Depth) Function   	        Calls       Base Space   Used Autos Params    Refs
 ---------------------------------------------------------------------------------
 (0) _main                                                53    53      0   26382
                                              0 BANK1     52    52      0
                        _DHT11_Start
                _DHT11_checkResponse
                     _DHT11_readData
                    _HIH5030_initADC
                   _HIH5030_readData
                       _LDR1_initADC
                      _LDR1_readData
                       _LM35_initADC
                      _LM35_readData
                     _i2c_masterInit
                          _lcd_clear
                           _lcd_init
                      _lcd_setCursor
                      _lcd_writeChar
                    _lcd_writeString
                       _printInteger
                _rtc_convLowerNibble
                _rtc_convUpperNibble
                       _rtc_readDate
                       _rtc_readTime
 ---------------------------------------------------------------------------------
 (1) _rtc_readTime                                         3     3      0     111
                                              2 COMMON     3     3      0
            _i2c_masterRepeatedStart
                    _i2c_masterStart
                     _i2c_masterStop
                    _i2c_masterWrite
                       _i2c_readByte
 ---------------------------------------------------------------------------------
 (1) _rtc_readDate                                         3     3      0     111
                                              2 COMMON     3     3      0
            _i2c_masterRepeatedStart
                    _i2c_masterStart
                     _i2c_masterStop
                    _i2c_masterWrite
                       _i2c_readByte
 ---------------------------------------------------------------------------------
 (2) _i2c_readByte                                         2     2      0      45
                                              0 COMMON     2     2      0
                     _i2c_masterWait
 ---------------------------------------------------------------------------------
 (2) _i2c_masterRepeatedStart                              0     0      0       0
                     _i2c_masterWait
 ---------------------------------------------------------------------------------
 (1) _rtc_convUpperNibble                                  2     2      0      22
                                              0 COMMON     2     2      0
 ---------------------------------------------------------------------------------
 (1) _rtc_convLowerNibble                                  1     1      0      22
                                              0 COMMON     1     1      0
 ---------------------------------------------------------------------------------
 (1) _printInteger                                         6     4      2    2673
                                             73 BANK0      6     4      2
                   _HIH5030_readData (ARG)
                      _LM35_readData (ARG)
                            ___awdiv
                            ___awmod
                             ___wmul
                      _lcd_writeChar
 ---------------------------------------------------------------------------------
 (2) ___awmod                                              6     2      4     448
                                              8 COMMON     6     2      4
                            ___awdiv (ARG)
 ---------------------------------------------------------------------------------
 (1) _lcd_writeString                                      3     3      0    1114
                                              6 COMMON     3     3      0
                      _lcd_writeChar
 ---------------------------------------------------------------------------------
 (2) _lcd_writeChar                                        2     2      0     133
                                              4 COMMON     2     2      0
                      _lcd_write4Bit
 ---------------------------------------------------------------------------------
 (1) _lcd_setCursor                                        2     1      1    1665
                                              6 COMMON     2     1      1
                            _lcd_cmd
 ---------------------------------------------------------------------------------
 (1) _lcd_init                                             3     3      0     155
                                              6 COMMON     3     3      0
                            _lcd_cmd
 ---------------------------------------------------------------------------------
 (1) _lcd_clear                                            1     1      0     133
                                              6 COMMON     1     1      0
                            _lcd_cmd
 ---------------------------------------------------------------------------------
 (2) _lcd_cmd                                              2     2      0     133
                                              4 COMMON     2     2      0
                      _lcd_write4Bit
 ---------------------------------------------------------------------------------
 (3) _lcd_write4Bit                                        2     2      0      89
                                              2 COMMON     2     2      0
                   _io_expanderWrite
 ---------------------------------------------------------------------------------
 (4) _io_expanderWrite                                     1     1      0      44
                                              1 COMMON     1     1      0
                    _i2c_masterStart
                     _i2c_masterStop
                    _i2c_masterWrite
 ---------------------------------------------------------------------------------
 (2) _i2c_masterWrite                                      1     1      0      22
                                              0 COMMON     1     1      0
                     _i2c_masterWait
 ---------------------------------------------------------------------------------
 (2) _i2c_masterStop                                       0     0      0       0
                     _i2c_masterWait
 ---------------------------------------------------------------------------------
 (2) _i2c_masterStart                                      0     0      0       0
                     _i2c_masterWait
 ---------------------------------------------------------------------------------
 (3) _i2c_masterWait                                       0     0      0       0
 ---------------------------------------------------------------------------------
 (1) _i2c_masterInit                                       0     0      0       0
 ---------------------------------------------------------------------------------
 (1) _LM35_readData                                        9     7      2    5671
                                             60 BANK0      9     7      2
                            ___fldiv
                            ___flmul
                            ___fltol
                             ___wmul
                           ___xxtofl
 ---------------------------------------------------------------------------------
 (1) _LM35_initADC                                         0     0      0       0
 ---------------------------------------------------------------------------------
 (1) _LDR1_readData                                        5     3      2     908
                                              8 COMMON     5     3      2
                            ___awdiv
 ---------------------------------------------------------------------------------
 (2) ___awdiv                                              8     4      4     908
                                              0 COMMON     8     4      4
 ---------------------------------------------------------------------------------
 (1) _LDR1_initADC                                         0     0      0       0
 ---------------------------------------------------------------------------------
 (1) _HIH5030_readData                                    13    11      2   11715
                                             60 BANK0     13    11      2
                            ___fladd
                            ___fldiv
                            ___flmul
                             ___wmul
                           ___xxtofl
                         _roundFloat
 ---------------------------------------------------------------------------------
 (2) _roundFloat                                          10     6      4    4114
                                             16 BANK0     10     6      4
                             ___flge
                            ___flsub
                            ___fltol
                           ___xxtofl
 ---------------------------------------------------------------------------------
 (2) ___xxtofl                                            14    10      4     550
                                              6 COMMON     8     4      4
                                              0 BANK0      6     6      0
                             ___wmul (ARG)
 ---------------------------------------------------------------------------------
 (2) ___fltol                                             10     6      4     381
                                              0 COMMON    10     6      4
 ---------------------------------------------------------------------------------
 (3) ___flsub                                              8     0      8    2485
                                              8 BANK0      8     0      8
                            ___fladd
                           ___xxtofl (ARG)
 ---------------------------------------------------------------------------------
 (4) ___fladd                                             20    12      8    2288
                                              0 COMMON    12     4      8
                                              0 BANK0      8     8      0
 ---------------------------------------------------------------------------------
 (3) ___flge                                              12     4      8     486
                                              0 COMMON    12     4      8
 ---------------------------------------------------------------------------------
 (2) ___wmul                                               6     2      4     548
                                              0 COMMON     6     2      4
 ---------------------------------------------------------------------------------
 (2) ___flmul                                             26    18      8    2569
                                             34 BANK0     26    18      8
                          __Umul8_16
                            ___fladd (ARG)
                            ___fldiv (ARG)
 ---------------------------------------------------------------------------------
 (3) __Umul8_16                                            9     7      2     799
                                              0 COMMON     9     7      2
 ---------------------------------------------------------------------------------
 (2) ___fldiv                                             26    18      8    1577
                                              8 BANK0     26    18      8
                            ___fladd (ARG)
 ---------------------------------------------------------------------------------
 (1) _HIH5030_initADC                                      0     0      0       0
 ---------------------------------------------------------------------------------
 (1) _DHT11_readData                                       3     3      0     115
                                              0 COMMON     3     3      0
 ---------------------------------------------------------------------------------
 (1) _DHT11_checkResponse                                  1     1      0       0
                                              0 COMMON     1     1      0
 ---------------------------------------------------------------------------------
 (1) _DHT11_Start                                          2     2      0       0
                                              0 COMMON     2     2      0
 ---------------------------------------------------------------------------------
 Estimated maximum stack depth 4
 ---------------------------------------------------------------------------------

 Call Graph Graphs:

 _main (ROOT)
   _DHT11_Start
   _DHT11_checkResponse
   _DHT11_readData
   _HIH5030_initADC
   _HIH5030_readData
     ___fladd
     ___fldiv
       ___fladd (ARG)
     ___flmul
       __Umul8_16
       ___fladd (ARG)
       ___fldiv (ARG)
     ___wmul
     ___xxtofl
       ___wmul (ARG)
     _roundFloat
       ___flge
       ___flsub
         ___fladd
         ___xxtofl (ARG)
       ___fltol
       ___xxtofl
   _LDR1_initADC
   _LDR1_readData
     ___awdiv
   _LM35_initADC
   _LM35_readData
     ___fldiv
     ___flmul
     ___fltol
     ___wmul
     ___xxtofl
   _i2c_masterInit
   _lcd_clear
     _lcd_cmd
       _lcd_write4Bit
         _io_expanderWrite
           _i2c_masterStart
             _i2c_masterWait
           _i2c_masterStop
             _i2c_masterWait
           _i2c_masterWrite
             _i2c_masterWait
   _lcd_init
     _lcd_cmd
   _lcd_setCursor
     _lcd_cmd
   _lcd_writeChar
     _lcd_write4Bit
   _lcd_writeString
     _lcd_writeChar
   _printInteger
     _HIH5030_readData (ARG)
     _LM35_readData (ARG)
     ___awdiv (ARG)
     ___awmod (ARG)
       ___awdiv (ARG)
     ___wmul (ARG)
     _lcd_writeChar (ARG)
   _rtc_convLowerNibble
   _rtc_convUpperNibble
   _rtc_readDate
     _i2c_masterRepeatedStart
       _i2c_masterWait
     _i2c_masterStart
     _i2c_masterStop
     _i2c_masterWrite
     _i2c_readByte
       _i2c_masterWait
   _rtc_readTime
     _i2c_masterRepeatedStart
     _i2c_masterStart
     _i2c_masterStop
     _i2c_masterWrite
     _i2c_readByte

 Address spaces:
Name               Size   Autos  Total    Cost      Usage
BANK3               60      0       E       9       14.6%
BITBANK3            60      0       0       8        0.0%
SFR3                 0      0       0       4        0.0%
BITSFR3              0      0       0       4        0.0%
BANK2               60      0       0      11        0.0%
BITBANK2            60      0       0      10        0.0%
SFR2                 0      0       0       5        0.0%
BITSFR2              0      0       0       5        0.0%
BANK1               50     34      4F       7       98.8%
BITBANK1            50      0       0       6        0.0%
SFR1                 0      0       0       2        0.0%
BITSFR1              0      0       0       2        0.0%
BANK0               50     4F      50       5      100.0%
BITBANK0            50      0       0       4        0.0%
SFR0                 0      0       0       1        0.0%
BITSFR0              0      0       0       1        0.0%
COMMON               E      E       E       1      100.0%
BITCOMMON            E      0       0       0        0.0%
CODE                 0      0       0       0        0.0%
DATA                 0      0      BB      12        0.0%
ABS                  0      0      BB       3        0.0%
NULL                 0      0       0       0        0.0%
STACK                0      0       0       2        0.0%
EEDATA             100      0       0       0        0.0%


Microchip Technology PIC Macro Assembler V2.41 build 20230208172133 
Symbol Table                                                                                   Mon May 22 20:30:20 2023

            _rtc_convUpperNibble 11AF                     ___fldiv@aexp 0041                     ___fldiv@bexp 0040  
                              pc 0002                     ___fldiv@sign 0039                   ?_lcd_setCursor 0076  
       __end_of_HIH5030_readData 0A57                               l30 11BB                               l33 11C7  
                             l42 1169                               l27 11A2                               l51 12B7  
                             l36 1157                               l60 1207                               l45 1160  
                             l54 16CC                               l63 123E                               l48 118A  
                             l72 1325                               l57 1277                               l66 1294  
                             l93 11AE                               l78 125A                               _RS 006F  
                  ?_LDR1_initADC 0070                     ___awdiv@sign 0075                               fsr 0004  
            ___wmul@multiplicand 0072              __Umul8_16@word_mpld 0076                              l102 1646  
                            l221 04AE                              l230 0525                              l400 1757  
                            l304 11BA                              l224 04F4                              l233 0513  
                            l217 048C                              l411 136C                              l307 1141  
                            l243 056F                              l227 04E2                              l219 0491  
                            l500 12E8                              l316 146E                              l236 0581  
                            l405 175D                              l253 05C9                              l502 1300  
                            l414 13B1                              l326 15C1                              l238 0558  
                            l408 1196                              l248 05B2                              l370 1222  
                            l259 0611                              l364 1359                              l373 11DA  
                            l197 02AC                              l382 117F                              l367 1368  
                            l359 1328                              l391 1174                              l376 11DF  
                            l385 081A                              l394 097B                              l379 11ED  
                            l388 08BD                              l397 0A56                              l653 14D5  
                            l910 002C                              l814 0C04                              l806 0CBA  
                            l824 0C4C                              l674 177A                              l818 0C2A  
                            l666 140A                              l851 01FB                              l908 001A  
                            l836 0CBA                              l677 17E6                              l693 1536  
                            l933 08E2                              l678 17FF                              l686 154B  
                            l871 01E7                              l839 12DB                              l935 0977  
                            l696 154B                              l865 0175                              l849 0083  
                            l793 0AB2                              l946 0941                              l947 094D  
                            l797 0B35                              l895 0F6F                              l799 0B0C  
                            l889 0FFF                              _day 00DE                              _min 00E2  
                            _sec 00E4                              fsr0 0004                              indf 0000  
                   ___awmod@sign 007D                   ?_LDR1_readData 0078                     ___flmul@aexp 0054  
                   ___flmul@bexp 0055                     ___flmul@sign 004F                     ___flmul@temp 005A  
                   ___flmul@prod 0056             ?_rtc_convUpperNibble 0070                     ___fltol@exp1 0079  
                           l3000 0058                             l3010 006B                             l3002 005D  
                           l3100 01B0                             l3020 008B                             l3012 0070  
                           l3004 0061                             l3110 01E6                             l3102 01BD  
                           l3030 00A9                             l3022 0097                             l3014 0078  
                           l3006 0065                             l3112 01EB                             l3104 01CB  
                           l3040 00D4                             l3024 009B                             l3016 0079  
                           l3008 0066                             l3200 0E94                             l3114 01EF  
                           l3106 01DA                             l3050 00F9                             l3042 00DC  
                           l3034 00B2                             l3018 007B                             l3210 0F24  
                           l3202 0EA2                             l3130 0CC4                             l3116 01F1  
                           l3108 01DE                             l3060 0124                             l3052 00FA  
                           l3044 00DE                             l3036 00C4                             l3028 00A4  
                           l3220 0F49                             l3212 0F32                             l3204 0ECD  
                           l3140 0CDB                             l3132 0CC8                             l2500 1181  
                           l3300 16C3                             l3118 01F5                             l3070 0141  
                           l3046 00E3                             l3054 0103                             l3062 0128  
                           l3038 00CC                             l3230 0F6C                             l3214 0F3B  
                           l3222 0F4F                             l3206 0EF3                             l3150 0CF2  
                           l3142 0CDD                             l3134 0CC9                             l3126 0CBB  
                           l2510 0A57                             l2502 1186                             l3310 1240  
                           l3302 1302                             l3400 134A                             l3080 0159  
                           l3072 0145                             l3064 012E                             l3056 0115  
                           l3048 00F5                             l3240 0F8B                             l3224 0F53  
                           l3216 0F3F                             l3208 0F1B                             l3160 0D07  
                           l3152 0CF3                             l3144 0CE5                             l3136 0CCE  
                           l3128 0CC0                             l2600 0B1F                             l2520 0A6A  
                           l2512 0A5A                             l2504 118A                             l3320 11A9  
                           l3312 1245                             l3304 1305                             l3402 135D  
                           l3090 017A                             l3082 015A                             l3074 0146  
                           l3066 0136                             l3058 0116                             l3250 0FD1  
                           l3242 0FA4                             l3234 0F74                             l3226 0F54  
                           l3218 0F40                             l3170 0D22                             l3162 0D0F  
                           l3154 0CF8                             l3146 0CEA                             l3138 0CD3  
                           l2610 0B3E                             l2602 0B20                             l2530 0A82  
                           l2522 0A6F                             l2514 0A60                             l3410 1175  
                           l3314 124D                             l3306 1312                             l3330 1637  
                           l3322 15C2                             l3404 1361                             l3092 017F  
                           l3084 015E                             l3076 014F                             l3068 0138  
                           l3260 0FEE                             l3252 0FDB                             l3236 0F79  
                           l3244 0FAA                             l3228 0F58                             l3180 0D9E  
                           l3172 0D30                             l3164 0D14                             l3156 0CFD  
                           l3148 0CEE                             l2700 0CA8                             l2620 0B66  
                           l2604 0B2B                             l2540 0A94                             l2532 0A85  
                           l2524 0A77                             l2516 0A64                             l3412 1178  
                           l3420 0848                             l2508 125C                             l3316 1253  
                           l3308 1318                             l3324 15C9                             l3332 140C  
                           l3500 0223                             l3406 1367                             l3430 116A  
                           l3094 018D                             l3086 0172                             l3078 0155  
                           l3254 0FDD                             l3262 0FF3                             l3246 0FB7  
                           l3238 0F87                             l3190 0E0A                             l3182 0DBA  
                           l3174 0D3D                             l3166 0D19                             l3158 0D05  
                           l2702 0CAA                             l2630 0B81                             l2622 0B6F  
                           l2614 0B47                             l2606 0B2F                             l2550 0AA8  
                           l2542 0A95                             l2534 0A8B                             l2526 0A78  
                           l2518 0A65                             l3414 117C                             l3422 084E  
                           l3270 119B                             l2710 11EF                             l3318 11A3  
                           l3326 15DE                             l3350 11B0                             l3334 1429  
                           l3342 1456                             l3510 0234                             l3502 0227  
                           l3432 116D                             l3096 0191                             l3264 0FF7  
                           l3256 0FE9                             l3248 0FC2                             l3192 0E18  
                           l3184 0DD6                             l3176 0D58                             l2720 178E  
                           l2704 0CAE                             l2640 0BE2                             l2624 0B71  
                           l2616 0B5E                             l2608 0B39                             l2632 0B86  
                           l2560 0AC2                             l2544 0A9A                             l2552 0AAA  
                           l2536 0A8C                             l2528 0A7A                             l2800 08DA  
                           l3440 09B1                             l3424 0874                             l3416 0817  
                           l3272 119C                             l2712 11F5                             l3280 1654  
                           l3328 15F9                             l3360 156A                             l3336 1438  
                           l3344 1469                             l3600 03A2                             l3520 023D  
                           l3512 0237                             l3504 0228                             l3434 1171  
                           l3098 01AA                             l3258 0FED                             l3194 0E35  
                           l3186 0DDF                             l3178 0D74                             l2730 17FC  
                           l2722 1796                             l2706 0CB5                             l2642 0BE7  
                           l2634 0B9C                             l2626 0B75                             l2618 0B62  
                           l2570 0ACC                             l2562 0AC4                             l2554 0AB8  
                           l2546 0A9F                             l2538 0A90                             l2810 08FA  
                           l2802 08EA                             l3442 09D7                             l3450 118B  
                           l3426 08AA                             l3418 081E                             l3274 119F  
                           l2490 11C1                             l2714 11FC                             l3290 1687  
                           l3282 165A                             l3354 113E                             l3362 1579  
                           l3370 15A6                             l3338 1447                             l3610 03C9  
                           l3602 03AA                             l3530 0252                             l3522 0240  
                           l3514 0238                             l3506 0229                             l3380 120B  
                           l3196 0E4C                             l3188 0DED                             l2732 17FE  
                           l2724 179A                             l2716 175E                             l2708 0CB9  
                           l2660 0C31                             l2652 0C1A                             l2636 0BDC  
                           l2644 0BF6                             l2628 0B76                             l2580 0AD6  
                           l2572 0ACE                             l2564 0AC6                             l2556 0ABC  
                           l2548 0AA7                             l2820 0925                             l2812 0903  
                           l3444 09F6                             l3436 0978                             l3452 118F  
                           l2900 1470                             l3460 1396                             l3276 11A0  
                           l3268 1197                             l2492 114F                             l3292 1696  
                           l3284 1669                             l3364 1588                             l3372 15BC  
                           l3700 051D                             l3620 03EC                             l3612 03D0  
                           l3604 03B2                             l3540 027A                             l3532 0261  
                           l3524 0243                             l3516 023B                             l3508 022E  
                           l3382 1217                             l3198 0E69                             l2726 17BE  
                           l2718 1772                             l2670 0C3F                             l2662 0C33  
                           l2654 0C25                             l2646 0C0C                             l2638 0BE0  
                           l2590 0ADF                             l2582 0AD8                             l2574 0AD0  
                           l2566 0AC8                             l2558 0AC0                             l2750 1506  
                           l2742 14E8                             l2830 094F                             l2822 092C  
                           l2814 090A                             l2806 08F3                             l3446 0A43  
                           l3438 097F                             l3454 1193                             l2910 1484  
                           l2902 1474                             l3462 13AD                             l2494 1154  
                           l3294 169F                             l3286 1672                             l3278 1648  
                           l3366 1597                             l3358 154D                             l3710 054A  
                           l3702 052A                             l3622 03F3                             l3614 03D7  
                           l3606 03B8                             l3630 0430                             l3550 02A6  
                           l3542 0280                             l3534 0266                             l3526 0244  
                           l3518 023C                             l3384 11D6                             l2728 17C2  
                           l2680 0C56                             l2672 0C43                             l2664 0C38  
                           l2656 0C29                             l2648 0C11                             l2592 0AF6  
                           l2584 0ADA                             l2576 0AD2                             l2568 0ACA  
                           l2760 151B                             l2752 150A                             l2744 14FB  
                           l2736 14D6                             l2832 0965                             l2824 0937  
                           l2816 090E                             l2808 08F6                             l2920 149A  
                           l2912 1488                             l2904 1479                             l3456 1369  
                           l2488 11BB                             l2496 1158                             l3296 16AE  
                           l3288 1681                             l3800 065F                             l3720 0566  
                           l3712 0550                             l3704 0532                             l3640 0459  
                           l3632 0435                             l3624 03FA                             l3616 03DE  
                           l3608 03C0                             l3560 02BF                             l3544 028B  
                           l3536 026E                             l3528 024C                             l3378 1208  
                           l3386 11E3                             l3394 132E                             l2690 0C91  
                           l2682 0C64                             l2674 0C49                             l2658 0C2E  
                           l2666 0C3A                             l2594 0B10                             l2586 0ADC  
                           l2578 0AD4                             l2770 153B                             l2762 1524  
                           l2746 14FC                             l2738 14DF                             l2834 096A  
                           l2826 093B                             l2818 091C                             l2930 14BA  
                           l2922 149E                             l2914 148A                             l2906 147B  
                           l3458 1370                             l2498 115D                             l3298 16B4  
                           l2842 1161                             l2850 12A3                             l3810 06B3  
                           l3802 0664                             l3730 058E                             l3722 056C  
                           l3714 0556                             l3706 0537                             l3650 047F  
                           l3642 0461                             l3634 043D                             l3618 03E5  
                           l3570 02FC                             l3554 02B0                             l3562 02C3  
                           l3546 0294                             l3538 0274                             l3490 01FC  
                           l3396 1333                             l3388 1326                             l2780 0007  
                           l2692 0C96                             l2684 0C68                             l2668 0C3E  
                           l2596 0B19                             l2588 0ADE                             l2772 1540  
                           l2748 1504                             l2836 096E                             l2828 0945  
                           l2932 14C1                             l2924 14A2                             l2916 1490  
                           l2908 147F                             l2844 1166                             l2852 12A7  
                           l3820 06E0                             l3812 06BB                             l3804 0669  
                           l3740 05B8                             l3732 0593                             l3724 0575  
                           l3716 055E                             l3708 0540                             l3660 04A1  
                           l3652 0485                             l3644 0467                             l3636 0443  
                           l3628 0401                             l3580 0320                             l3572 0304  
                           l3564 02CA                             l3556 02B5                             l3548 029D  
                           l3492 0200                             l3398 1339                             l2790 0028  
                           l2782 0009                             l2694 0C9E                             l2686 0C88  
                           l2678 0C51                             l2598 0B1B                             l2774 12B8  
                           l2758 1512                             l2838 096F                             l2926 14B3  
                           l2918 1493                             l2934 14C7                             l2862 1224  
                           l2870 127D                             l2950 13BE                             l2942 13B2  
                           l2854 12AC                             l2846 1296                             l3830 070B  
                           l3822 06E8                             l3814 06C0                             l3806 0671  
                           l3750 05D3                             l3742 05BA                             l3734 05A4  
                           l3726 0579                             l3718 0560                             l3670 04C4  
                           l3662 04A7                             l3646 046F                             l3638 0451  
                           l3590 037E                             l3582 0328                             l3574 030A  
                           l3566 02E8                             l3558 02BD                             l3494 0201  
                           l2784 0010                             l2696 0CA3                             l2688 0C8C  
                           l2776 12BC                             l2768 152B                             l2880 174F  
                           l2872 16CD                             l2936 14CC                             l2928 14B9  
                           l2864 1227                             l2960 13D7                             l2952 13C2  
                           l2944 13B3                             l2856 12B3                             l2848 129B  
                           l3840 0730                             l3824 06EE                             l3816 06D0  
                           l3808 06AD                             l3760 05F4                             l3744 05C0  
                           l3736 05AA                             l3728 0586                             l3752 05DB  
                           l3680 04D9                             l3664 04B3                             l3656 0495  
                           l3672 04CA                             l3648 0477                             l3592 0386  
                           l3584 0330                             l3576 0312                             l3568 02F3  
                           l3496 0217                             l2786 0014                             l2890 12EF  
                           l2698 0CA4                             l2794 08C1                             l2874 1712  
                           l2938 14D1                             l2866 122E                             l2970 13F6  
                           l2962 13DB                             l2954 13C7                             l2946 13B7  
                           l2858 12B6                             l3850 0761                             l3842 0738  
                           l3826 06F6                             l3834 071B                             l3762 05FA  
                           l3754 05E2                             l3746 05C6                             l3738 05B0  
                           l3690 0501                             l3682 04DF                             l3674 04D0  
                           l3666 04B6                             l3658 0499                             l3594 038C  
                           l3586 0336                             l3578 031A                             l3498 021F  
                           l2980 002D                             l2788 0023                             l2892 12F6  
                           l2884 12DC                             l2796 08C6                             l2876 172B  
                           l2868 1279                             l2964 13DF                             l2956 13CD  
                           l2972 13FC                             l2948 13BC                             l3860 0793  
                           l3852 0769                             l3844 073E                             l3836 0723  
                           l3828 06FB                             l3780 061E                             l3772 0609  
                           l3764 0600                             l3756 05E8                             l3748 05CF  
                           l3692 0506                             l3684 04E8                             l3676 04D0  
                           l3668 04BE                             l3596 0394                             l3588 033E  
                           l2990 0040                             l2982 0032                             l2894 12FC  
                           l2886 12DE                             l2798 08CA                             l2878 1746  
                           l2974 1401                             l2966 13E9                             l2958 13D0  
                           l3870 07BE                             l3862 0799                             l3854 0774  
                           l3846 074C                             l3838 072A                             l3782 062B  
                           l3774 060A                             l3766 0601                             l3758 05EE  
                           l3694 050A                             l3686 04EC                             l3678 04D7  
                           l3598 039C                             l2992 0045                             l2984 0036  
                           l2888 12E2                             l2976 1406                             l2968 13EF  
                           l3872 07C2                             l3864 079E                             l3848 0751  
                           l3856 0785                             l3792 0648                             l3768 0602  
                           l3696 0510                             l3688 04F9                             l2994 004D  
                           l2986 003A                             l2898 146F                             l3874 07CA  
                           l3866 07B0                             l3858 078B                             l3778 0614  
                           l3786 0632                             l3698 0519                             l3794 064B  
                           l3954 0419                             l2996 004E                             l2988 003B  
                           l3956 145E                             l3876 07D0                             l3868 07B8  
                           l3796 0651                             l3788 0641                             l2998 0050  
                           l3958 15AE                             l3798 0659                             STR_1 1016  
                           STR_2 1060                             STR_3 1067                             STR_4 108C  
                           STR_5 1088                             STR_6 1080                             STR_7 107C  
                           STR_8 1094                             STR_9 1084                             u3000 1772  
                           u3001 1771                             u3010 178E                             u3011 178D  
                           u3020 179A                             u3100 1511                             u3021 1799  
                           u3101 1510                             u3031 17A9                             u3040 17C2  
                           u3032 17AA                             u3120 1523                             u3200 08C6  
                           u4001 0D82                             u3041 17C1                             u3033 17AF  
                           u3121 1522                             u3201 08C5                             u4002 0D89  
                           u3034 17B0                             u3130 152A                             u3210 08CA  
                           u4011 0DAC                             u4003 0D90                             u3051 17D1  
                           u3035 17B5                             u3131 1529                             u3115 1513  
                           u3211 08C9                             u4100 0ED9                             u4012 0DB3  
                           u3060 17FC                             u3052 17D2                             u3036 17B6  
                           u3300 0945                             u3220 08EA                             u4021 0DC8  
                           u4013 0DBA                             u3061 17FB                             u3053 17D7  
                           u3301 0944                             u3221 08E9                             u4022 0DCF  
                           u3054 17D8                             u3150 153B                             u3070 14DF  
                           u3310 095A                             u4111 0EE5                             u4023 0DD6  
                           u3055 17DD                             u3151 153A                             u3071 14DE  
                           u4200 0F6C                             u4120 0F01                             u4112 0EEC  
                           u3056 17DE                             u2600 0A9F                             u3160 1540  
                           u3080 14F6                             u3320 096A                             u3240 0909  
                           u2520 11C1                             u5000 06F6                             u4201 0F6B  
                           u4113 0EF3                             u4105 0ED4                             u4041 0DFC  
                           u3065 17F8                             u2601 0A9E                             u3161 153F  
                           u3145 152D                             u3321 0969                             u3241 0908  
                           u2521 11C0                             u5001 06F5                             u3170 0014  
                           u4210 0F73                             u4042 0E03                             u2610 0AB8  
                           u3090 150A                             u3330 096E                             u2530 11C7  
                           u5010 0730                             u3171 0013                             u4211 0F72  
                           u4131 0F0D                             u4051 0E27                             u4043 0E0A  
                           u4035 0DD8                             u2611 0AB7                             u3091 1509  
                           u3331 096D                             u3315 0955                             u3235 08FB  
                           u2531 11C6                             u5011 072F                             u4220 0F79  
                           u4132 0F14                             u4052 0E2E                             u3420 12FC  
                           u2700 0B39                             u2620 0ABC                             u2540 0A64  
                           u3260 092B                             u4300 1253                             u3340 12B3  
                           u5020 078B                             u4221 0F78                             u4133 0F1B  
                           u4125 0EFC                             u4053 0E35                             u3421 12FB  
                           u3405 12E9                             u2701 0B38                             u2621 0ABB  
                           u2541 0A63                             u3085 14F1                             u3261 092A  
                           u4301 1252                             u3341 12B0                             u5021 078A  
                           u3190 0028                             u4230 0F8B                             u2710 0B3E  
                           u2630 0AF6                             u2550 0A6A                             u3510 14C7  
                           u3430 1474                             u4310 15F8                             u5030 07B0  
                           u3191 0027                             u4231 0F8A                             u4071 0E5B  
                           u3415 12F0                             u2711 0B3D                             u2631 0AF5  
                           u2551 0A69                             u3255 091D                             u3511 14C6  
                           u3431 1473                             u4311 15F7                             u5031 07AF  
                           u4400 135D                             u4240 0F9A                             u4160 0F3F  
                           u4072 0E62                             u2800 0BE7                             u2640 0AFF  
                           u2560 0A6F                             u3280 093B                             u3520 14CC  
                           u3440 147F                             u3600 13FC                             u4320 1646  
                           u4401 135C                             u3185 001B                             u4161 0F3E  
                           u4145 0F1D                             u4081 0E86                             u4073 0E69  
                           u4065 0E37                             u2801 0BE6                             u2721 0B50  
                           u2641 0AFD                             u2561 0A6E                             u3281 093A  
                           u3521 14CB                             u3505 14BB                             u3441 147E  
                           u3601 13FB                             u4321 1645                             u4410 1367  
                           u4250 0FB7                             u4082 0E8D                             u2810 0C0C  
                           u2730 0B62                             u2722 0B57                             u2650 0B00  
                           u2570 0A8B                             u3290 0941                             u3370 172B  
                           u3450 1490                             u3610 1401                             u3530 13B7  
                           u4411 1366                             u4251 0FB6                             u4155 0F34  
                           u4091 0EB1                             u4083 0E94                             u2811 0C0B  
                           u2731 0B61                             u2723 0B5E                             u2635 0AF2  
                           u2571 0A8A                             u3291 0940                             u3275 0930  
                           u3371 172A                             u3451 148F                             u3355 1231  
                           u5107 166D                             u3611 1400                             u3531 13B6  
                           u4315 15F4                             u5035 07AC                             u4340 11DF  
                           u3700 00E3                             u3620 003A                             u4260 0FD1  
                           u4180 0F53                             u4092 0EB8                             u2900 0C50  
                           u2820 0C11                             u2740 0B66                             u2660 0B10  
                           u2580 0A94                             u3380 1746                             u4420 081E  
                           u3540 13C2                             u4500 02B0                             u4341 11DE  
                           u3701 00E2                             u3621 0039                             u4261 0FD0  
                           u4245 0F95                             u4181 0F52                             u4093 0EBF  
                           u2901 0C4F                             u2821 0C10                             u2741 0B65  
                           u2661 0B0F                             u2581 0A93                             u3381 1745  
                           u4421 081D                             u5117 167C                             u3365 1287  
                           u3541 13C1                             u4325 1642                             u4501 02AF  
                           u4350 11E3                             u3630 0040                             u4270 0FED  
                           u4190 0F58                             u3390 12E2                             u2910 0C56  
                           u2750 0B75                             u2670 0B1F                             u2590 0A9A  
                           u3470 14A2                             u3550 13CD                             u4510 02BD  
                           u5207 11EB                             u4351 11E2                             u3631 003F  
                           u4271 0FEC                             u4255 0FB3                             u4191 0F57  
                           u4175 0F42                             u3391 12E1                             u2911 0C55  
                           u2751 0B74                             u2671 0B1E                             u2591 0A99  
                           u3471 14A1                             u5127 168B                             u3551 13CC  
                           u4335 11B3                             u4511 02BC                             u5047 025A  
                           u4360 132E                             u3640 0045                             u2920 0C68  
                           u2840 0C29                             u4440 097F                             u4280 1325  
                           u4600 04DF                             u4520 02CA                             u5217 1212  
                           u4361 132D                             u3641 0044                             u4265 0FCD  
                           u2921 0C67                             u2841 0C28                             u4441 097E  
                           u3465 1494                             u5137 169A                             u4281 1324  
                           u5057 061A                             u4601 04DE                             u4521 02C9  
                           u4370 1339                             u3810 0159                             u3730 00F9  
                           u3650 0065                             u2930 0C79                             u2850 0C2E  
                           u2770 0B9C                             u2690 0B35                             u3490 14B3  
                           u4290 1245                             u3570 13DF                             u4610 04E8  
                           u4530 0435                             u5227 121C                             u4371 1338  
                           u3811 0158                             u3731 00F8                             u3715 00E5  
                           u3651 0064                             u2851 0C2D                             u2835 0C1E  
                           u2771 0B9B                             u2691 0B34                             u3491 14B2  
                           u4435 0836                             u5147 16A9                             u4291 1244  
                           u3571 13DE                             u5067 0627                             u4611 04E7  
                           u4531 0434                             u3900 01EF                             u3820 015E  
                           u3660 006B                             u2940 0C88                             u2860 0C38  
                           u4460 1370                             u3580 13E9                             u4700 0532  
                           u4620 04F4                             u4540 0485                             u3901 01EE  
                           u3821 015D                             u3805 0148                             u3725 00EE  
                           u3661 006A                             u2941 0C87                             u2861 0C37  
                           u2781 0BB5                             u2773 0B98                             u2765 0B7A  
                           u2685 0B24                             u3485 14A3                             u4461 136F  
                           u5157 16B8                             u3581 13E8                             u3565 13D1  
                           u5077 063A                             u4701 0531                             u4621 04F3  
                           u4541 0484                             u3830 0172                             u3750 0115  
                           u3670 0070                             u3910 0CC8                             u2950 0C91  
                           u2870 0C3E                             u2790 0BC9                             u2782 0BB6  
                           u4710 0537                             u4630 04F9                             u4550 048C  
                           u3831 0171                             u3751 0114                             u3671 006F  
                           u3911 0CC7                             u2951 0C90                             u2935 0C74  
                           u2871 0C3D                             u2791 0BCA                             u2783 0BBB  
                           u4455 0997                             u3495 14AF                             u5167 16C7  
                           u5087 1650                             u4711 0536                             u4631 04F8  
                           u4551 048B                             u4384 1341                             u3840 0179  
                           u3760 012E                             u3680 008B                             u3920 0CCE  
                           u2960 0C96                             u2880 0C43                             u2792 0BCF  
                           u2784 0BBC                             u4800 058E                             u4720 054A  
                           u4640 0501                             u4560 0491                             u4480 0209  
                           u4385 133F                             u3841 0178                             u3761 012D  
                           u3745 00FC                             u3681 008A                             u3921 0CCD  
                           u2961 0C95                             u2881 0C42                             u2793 0BD0  
                           u2785 0BC1                             u5177 11AB                             u5097 165E  
                           u3585 13E5                             u4801 058D                             u4721 0549  
                           u4641 0500                             u4561 0490                             u4394 1352  
                           u3850 017F                             u3770 0136                             u3690 00A9  
                           u3930 0CD3                             u2970 0CA3                             u2890 0C49  
                           u2786 0BC2                             u4810 0593                             u4730 0556  
                           u4650 0506                             u4570 04B3                             u4490 02AC  
                           u4395 1350                             u3851 017E                             u3771 0135  
                           u3755 0111                             u3691 00A8                             u3931 0CD2  
                           u2971 0CA2                             u2891 0C48                             u4475 1382  
                           u5187 1205                             u3595 13F0                             u4811 0592  
                           u4731 0555                             u4651 0505                             u4571 04B2  
                           u4491 02AB                             u3860 0191                             u3940 0CF2  
                           u2980 0CA8                             u4900 05E8                             u4820 05A4  
                           u4740 055E                             u4660 0510                             u4580 04D0  
                           u5197 1330                             u3861 0190                             u3941 0CF1  
                           u2981 0CA7                             u4901 05E7                             u4821 05A3  
                           u4741 055D                             u4661 050F                             u4581 04CF  
                           u3870 01A0                             u3790 0145                             u3950 0CF8  
                           u2990 0CB9                             u4910 05EE                             u4830 05B0  
                           u4750 0566                             u4670 0519                             u4590 04D7  
                           u3791 0144                             u3951 0CF7                             u2991 0CB8  
                           u4911 05ED                             u4831 05AF                             u4751 0565  
                           u4671 0518                             u4591 04D6                             u3880 01BD  
                           u3960 0CFD                             u4920 05F4                             u4840 05B8  
                           u4760 056C                             u4680 0525                             u3881 01BC  
                           u3785 013A                             u3961 0CFC                             u4921 05F3  
                           u4841 05B7                             u4761 056B                             u4681 0524  
                           u3890 01DA                             u3970 0D14                             u4930 05FA  
                           u4850 05C0                             u4770 0575                             u4690 052A  
                           u3891 01D9                             u3875 019B                             u3971 0D13  
                           u4931 05F9                             u4851 05BF                             u4771 0574  
                           u4691 0529                             u3980 0D19                             u4940 0600  
                           u4860 05C6                             u4780 0581                             u3885 01B9  
                           u3981 0D18                             u4941 05FF                             u4861 05C5  
                           u4781 0580                             u4950 0608                             u4870 05CF  
                           u4790 0586                             u3895 01D6                             u3991 0D66  
                           u4951 0607                             u4871 05CE                             u4791 0585  
                           u3992 0D6D                             u4960 0610                             u4880 05DB  
                           u3993 0D74                             u4961 060F                             u4881 05DA  
                           u4970 0651                             u4890 05E2                             u4971 0650  
                           u4891 05E1                             u4980 0671                             u4981 0670  
                           u4990 06BB                             u4991 06BA          _i2c_masterRepeatedStart 1161  
                           _WPUB 0095                   ?_lcd_write4Bit 0070                             _date 00DC  
                    main@month_0 00BB                      main@month_1 00BA                             _main 01FC  
                           _hour 00E0                             _year 00D8                    ?_i2c_readByte 0070  
                           btemp 007E                   ?_lcd_writeChar 0070                             start 0000  
                ___fldiv@new_exp 003A                  _backlight_state 00ED                   ??_LDR1_initADC 0070  
              lcd_writeChar@data 0075                    ___fltol@sign1 0078                  __end_of___fladd 0CBB  
                          ?_main 0070                  __end_of___fldiv 01FC                  __end_of___awdiv 14D6  
                          STR_10 1090                            STR_11 1078                            STR_20 1073  
                          STR_12 1023                  DHT11_readData@i 0072                            STR_13 1040  
                          STR_21 1006                            STR_14 1023                            STR_22 102E  
                          STR_23 106D                            STR_15 105B                            STR_24 1073  
                          STR_16 1023                            STR_17 104B                            STR_25 1037  
                          STR_18 1050                            STR_26 1048                            STR_19 106D  
                          STR_27 1058                  __end_of___awmod 140B                  __end_of___flmul 1000  
                __end_of___flsub 12DC                  __end_of___fltol 154C                  ___awdiv@divisor 0070  
                ___awdiv@counter 0074                            _TRISB 0086                            _TRISD 0088  
               lcd_writeString@i 0076            ??_rtc_convUpperNibble 0070                  __end_of_lcd_cmd 123F  
                 _i2c_masterInit 1197          __end_of_lcd_writeString 1326                   _i2c_masterWait 11BB  
                 _i2c_masterStop 1158                            _month 00DA                            main@i 00C9  
                          main@j 00C8                     main@time_aux 00BE                            pclath 000A  
                 ??_i2c_readByte 0070                            status 0003                            wtemp0 007E  
   rtc_readDate@calendar_address 0074                 ??_DHT11_readData 0070                  __initialization 07D7  
                ??_lcd_setCursor 0077                     __end_of_main 07D7                ??_HIH5030_initADC 0070  
           __end_of_LM35_initADC 1180                           ??_main 00A0                  ??_LDR1_readData 007A  
         __end_of_i2c_masterInit 11A3           __end_of_i2c_masterWait 11C8           __end_of_i2c_masterStop 1161  
      ??_i2c_masterRepeatedStart 0070                           _ADCON0 001F                           _ADCON1 009F  
                         _ADRESH 001E                           _ADRESL 009E                 ___awdiv@dividend 0072  
                         _ANSELH 0189                  ??_lcd_write4Bit 0072                  ??_lcd_writeChar 0074  
                         _OSCCON 008F                           _SSPADD 0093                           _SSPBUF 0013  
               __end_of___xxtofl 0978                 __end_of_lcd_init 16CD                           ___flge 175E  
                _i2c_masterStart 114F                        ??___fladd 0020                           ___wmul 12DC  
                _i2c_masterWrite 1180                        ??___fldiv 0030                        ??___awdiv 0074  
                      ??___awmod 007C                        ??___flmul 004A                        ??___flsub 007E  
                      ??___fltol 0074                 ___awdiv@quotient 0076                  ___awmod@divisor 0078  
                ___awmod@counter 007C                        ??_lcd_cmd 0074                           main@ok 00D1  
                  main@week_days 00A4             io_expanderWrite@data 0071                  printInteger@num 0069  
                ?_i2c_masterInit 0070                  ?_i2c_masterWait 0070                  ?_i2c_masterStop 0070  
               ?_lcd_writeString 0070                 _io_expanderWrite 125B             __end_of_LDR1_initADC 1197  
                     ___flge@ff1 0070                       ___flge@ff2 0074                     ___xxtofl@arg 0022  
                   ___xxtofl@exp 0021                     ___xxtofl@val 0076          __end_of__initialization 07FC  
                     ___fltol@f1 0070                   __pcstackCOMMON 0070                     __pidataBANK1 1142  
                   __pidataBANK3 11C8                ?_HIH5030_readData 005C                 lcd_setCursor@col 0076  
               lcd_setCursor@row 0077      __end_of_rtc_convLowerNibble 1142             __end_of_i2c_readByte 12B8  
             ??_HIH5030_readData 005E                     _alarm_status 00E8         LM35_readData@temperature 0061  
          __end_of_LM35_readData 08BE                       __pbssBANK0 006F                       __pbssBANK1 00D4  
        __end_of_i2c_masterStart 1158          __end_of_i2c_masterWrite 118B                __end_of__Umul8_16 002D  
                     __pmaintext 01FC                          ?___flge 0070                          ?___wmul 0070  
            _DHT11_checkResponse 11D6                          _ACKSTAT 048E                        ?___xxtofl 0076  
       rtc_convUpperNibble@digit 0071                    roundFloat@num 0030                          _SSPCON2 0091  
                      ?_lcd_init 0070             ?_DHT11_checkResponse 0070                          _SSPSTAT 0094  
                     __stringtab 1000               lcd_writeString@str 0078                  _HIH5030_initADC 116A  
                  ??_DHT11_Start 0070                     _LM35_initADC 1175                          _i2c_add 00EE  
              __end_of_lcd_clear 11AF                          ___fladd 0A57                          ___fldiv 002D  
                        ___awdiv 146F                          ___awmod 13B2                          ___flmul 0CBB  
                 main@rh_octet_1 00C0                   main@rh_octet_2 00B2                          ___flsub 12B8  
                        ___fltol 14D6                  lcd_init@i2c_Add 0078                          _adc_val 00D6  
                      _ANSELbits 0188      __end_of_rtc_convUpperNibble 11BB                          __ptext1 140B  
                        __ptext2 154C                          __ptext3 1295                          __ptext4 1161  
                        __ptext5 11AF                          __ptext6 113D                          __ptext7 15C2  
                        __ptext8 13B2                          __ptext9 1301                          _lcd_cmd 1223  
              HIH5030_readData@x 0065                       ??___xxtofl 007A                 ___awmod@dividend 007A  
          ??_DHT11_checkResponse 0070                          main@aux 00CA                          clrloop0 1148  
                        main@pos 00D3                       ??_lcd_init 0076             end_of_initialization 07FC  
                i2c_readByte@ack 0070                 ?_i2c_masterStart 0070                 ?_i2c_masterWrite 0070  
            __end_of_DHT11_Start 1223         __end_of_io_expanderWrite 1278            __end_of_lcd_setCursor 125B  
                  ?_rtc_readDate 0070                    ?_rtc_readTime 0070                    ?_printInteger 0069  
               ??_i2c_masterInit 0070                 ??_i2c_masterWait 0070                     _LDR1_initADC 118B  
               ??_i2c_masterStop 0070                        _PORTBbits 0006                        _PORTDbits 0008  
                    ___fladd@grs 007B            __end_of_LDR1_readData 13B2                    ___xxtofl@sign 0020  
                      _TRISAbits 0085                        _TRISCbits 0087                        _TRISDbits 0088  
                     lcd_cmd@cmd 0075          __end_of_HIH5030_initADC 1175                      ___fldiv@grs 003C  
                    ___fldiv@rem 0035                       _roundFloat 16CD                      ___flmul@grs 0050  
          __end_of_lcd_write4Bit 1208            __end_of_lcd_writeChar 1295                     _i2c_readByte 1295  
                     main@hour_0 00C6                       main@hour_1 00C7                       main@year_0 00BD  
                     main@year_1 00BC                   ??_rtc_readDate 0072                   ??_rtc_readTime 0072  
                 ??_printInteger 007E                   __end_of___flge 1800                   __end_of___wmul 1301  
       ?_i2c_masterRepeatedStart 0070              start_initialization 07D7                  main@alarm_digit 00CD  
                    _DHT11_Start 1208              printInteger@divisor 006D                         ??___flge 0078  
                       ??___wmul 0074                       init_fetch0 0804                        __Umul8_16 0006  
                    __pdataBANK1 00E9                      __pdataBANK3 0190                        ___fladd@a 0074  
                      ___fladd@b 0070                        ___fldiv@a 0028                        ___fldiv@b 002C  
                      ___flmul@a 0046                        ___flmul@b 0042                  main@device_mode 00CC  
                      ___flsub@a 0028                        ___flsub@b 002C                        ___latbits 0002  
                  __pcstackBANK0 0020                    __pcstackBANK1 00A0                 ?_HIH5030_initADC 0070  
                    ?_roundFloat 0030                        _check_bit 00E6                        __pnvBANK1 00EE  
                       ?___fladd 0070                         ?___fldiv 0028                         ?___awdiv 0070  
                       ?___awmod 0078                         ?___flmul 0042                         ?___flsub 0028  
                       ?___fltol 0070                       ?__Umul8_16 0070  __end_of_i2c_masterRepeatedStart 116A  
                      _lcd_clear 11A3                        __pstrings 1000                         ?_lcd_cmd 0070  
             DHT11_readData@data 0071             __end_of_rtc_readDate 15C2             __end_of_rtc_readTime 146F  
           __end_of_printInteger 1647                   ___wmul@product 0074                        clear_ram0 1147  
                      main@F1409 00E9                        main@F1395 0190                ??_lcd_writeString 0076  
              ?_io_expanderWrite 0070                       ?_lcd_clear 0070               ??_io_expanderWrite 0071  
                 _DHT11_readData 1326                       _ADCON0bits 001F                      __stringbase 1005  
              ___wmul@multiplier 0070      __end_of_DHT11_checkResponse 11EE                        main@day_0 00B9  
                      main@day_1 00B8                 main@temp_octet_1 00C2                 main@temp_octet_2 00B4  
                      main@min_0 00C4                        main@min_1 00C5                        main@sec_0 00B6  
                      main@sec_1 00B7              lcd_write4Bit@nibble 0073                 _HIH5030_readData 0978  
                  _LM35_readData 0817        i2c_readByte@incoming_data 0071                      ??__Umul8_16 0072  
         __end_of_DHT11_readData 1369               __end_of__stringtab 1006                         _adc_val1 00D4  
                       ___xxtofl 08BE                         __ptext10 1278                         __ptext11 123F  
                       __ptext20 11BB                         __ptext12 1647                         __ptext21 1197  
                       __ptext13 11A3                         __ptext30 14D6                         __ptext22 0817  
                       __ptext14 1223                         __ptext31 12B8                         __ptext23 1175  
                       __ptext15 11EE                         __ptext40 11D6                         __ptext32 0A57  
                       __ptext24 1369                         __ptext16 125B                         __ptext41 1208  
                       __ptext33 175E                         __ptext25 146F                         __ptext17 1180  
                       __ptext34 12DC                         __ptext26 118B                         __ptext18 1158  
                       __ptext35 0CBB                         __ptext27 0978                         __ptext19 114F  
                       __ptext36 0006                         __ptext28 16CD                         __ptext37 002D  
                       __ptext29 08BE                         __ptext38 116A                         __ptext39 1326  
                       _lcd_init 1647                   ?_LM35_readData 005C               HIH5030_readData@RH 0061  
                   ?_DHT11_Start 0070              _rtc_convLowerNibble 113D                  ?_DHT11_readData 0070  
            i2c_masterWrite@data 0070                      ??_lcd_clear 0076                printInteger@cifra 006B  
                       init_ram0 0808             ?_rtc_convLowerNibble 0070                     ??_roundFloat 007E  
              roundFloat@decimal 0034                    ?_LM35_initADC 0070                        stringcode 1000  
              roundFloat@rounded 0038                     _rtc_readDate 154C        rtc_readTime@clock_address 0074  
                  _lcd_setCursor 123F                     _rtc_readTime 140B                     _printInteger 15C2  
             __end_of_roundFloat 175E           __Umul8_16@multiplicand 0070                       _OPTION_REG 0081  
              ??_i2c_masterStart 0070                ??_i2c_masterWrite 0070                         stringdir 1000  
                       stringtab 1000                    _LDR1_readData 1369         rtc_convLowerNibble@digit 0070  
          ??_rtc_convLowerNibble 0070                  ??_LM35_readData 005E                      _SSPCON2bits 0091  
                  ___fladd@signs 0078                   ??_LM35_initADC 0070                  _lcd_writeString 1301  
                   ___fladd@aexp 0079                     ___fladd@bexp 007A                    _lcd_write4Bit 11EE  
           __Umul8_16@multiplier 0078                       _SSPCONbits 0014                    _lcd_writeChar 1278  
              __Umul8_16@product 0074  
